SF:/home/runner/work/wassette/wassette/crates/component2json/src/lib.rs
FN:764,_RNCNvCslTVrNxv1oL_14component2json20default_val_for_type0B3_
FN:777,_RNCNvCslTVrNxv1oL_14component2json20default_val_for_types0_0B3_
FN:769,_RNCNvCslTVrNxv1oL_14component2json20default_val_for_types_0B3_
FN:744,_RNvCslTVrNxv1oL_14component2json20default_val_for_type
FN:197,_RNvCslTVrNxv1oL_14component2json26create_placeholder_results
FN:1479,_RNvNtCslTVrNxv1oL_14component2json5testss_14test_roundtrip
FN:1415,_RNvNtCslTVrNxv1oL_14component2json5testss_17test_json_to_eval
FN:1436,_RNvNtCslTVrNxv1oL_14component2json5testss_17test_json_to_vals
FN:1781,_RNvNtCslTVrNxv1oL_14component2json5testss_19test_mcp_compliance
FN:826,_RNvNtCslTVrNxv1oL_14component2json5testss_21test_val_to_json_bool
FN:877,_RNvNtCslTVrNxv1oL_14component2json5testss_21test_val_to_json_char
FN:928,_RNvNtCslTVrNxv1oL_14component2json5testss_21test_val_to_json_enum
FN:889,_RNvNtCslTVrNxv1oL_14component2json5testss_21test_val_to_json_list
FN:966,_RNvNtCslTVrNxv1oL_14component2json5testss_22test_val_to_json_flags
FN:907,_RNvNtCslTVrNxv1oL_14component2json5testss_22test_val_to_json_tuple
FN:1452,_RNvNtCslTVrNxv1oL_14component2json5testss_23test_json_to_val_errors
FN:860,_RNvNtCslTVrNxv1oL_14component2json5testss_23test_val_to_json_floats
FN:934,_RNvNtCslTVrNxv1oL_14component2json5testss_23test_val_to_json_option
FN:895,_RNvNtCslTVrNxv1oL_14component2json5testss_23test_val_to_json_record
FN:943,_RNvNtCslTVrNxv1oL_14component2json5testss_23test_val_to_json_result
FN:883,_RNvNtCslTVrNxv1oL_14component2json5testss_23test_val_to_json_string
FN:803,_RNvNtCslTVrNxv1oL_14component2json5testss_23test_vals_to_json_empty
FN:1463,_RNvNtCslTVrNxv1oL_14component2json5testss_24test_json_to_vals_errors
FN:1705,_RNvNtCslTVrNxv1oL_14component2json5testss_24test_normalize_tool_name
FN:832,_RNvNtCslTVrNxv1oL_14component2json5testss_24test_val_to_json_numbers
FN:913,_RNvNtCslTVrNxv1oL_14component2json5testss_24test_val_to_json_variant
FN:809,_RNvNtCslTVrNxv1oL_14component2json5testss_24test_vals_to_json_single
FN:1655,_RNvNtCslTVrNxv1oL_14component2json5testss_25test_tool_name_validation
FN:1405,_RNvNtCslTVrNxv1oL_14component2json5testss_26test_vals_to_json_multiple
FN:983,_RNvNtCslTVrNxv1oL_14component2json5testss_27test_root_component_exports
FN:972,_RNvNtCslTVrNxv1oL_14component2json5testss_28test_component_exports_empty
FN:1371,_RNvNtCslTVrNxv1oL_14component2json5testss_28test_wit_to_json_conversions
FN:1077,_RNvNtCslTVrNxv1oL_14component2json5testss_29test_component_exports_schema
FN:1040,_RNvNtCslTVrNxv1oL_14component2json5testss_29test_generate_function_schema
FN:1684,_RNvNtCslTVrNxv1oL_14component2json5testss_29test_normalize_name_component
FN:1757,_RNvNtCslTVrNxv1oL_14component2json5testss_33test_function_identifier_equality
FN:816,_RNvNtCslTVrNxv1oL_14component2json5testss_33test_vals_to_json_multiple_values
FN:1798,_RNvNtCslTVrNxv1oL_14component2json5testss_35test_simple_tool_name_normalization
FN:1228,_RNvNvNtCslTVrNxv1oL_14component2json5testss_29test_component_exports_schema9find_tool
FN:1231,_RNCNCNvNvNtCslTVrNxv1oL_14component2json5testss_29test_component_exports_schema9find_tool00B9_
FN:1585,_RNCNvNtCslTVrNxv1oL_14component2json5testss_14test_roundtrip0B5_
FN:1231,_RNCNvNvNtCslTVrNxv1oL_14component2json5testss_29test_component_exports_schema9find_tool0B7_
FN:529,_RNvCslTVrNxv1oL_14component2json11json_to_val
FN:458,_RNvCslTVrNxv1oL_14component2json11val_to_json
FN:176,_RNvCslTVrNxv1oL_14component2json12json_to_vals
FN:160,_RNvCslTVrNxv1oL_14component2json12vals_to_json
FN:65,_RNvCslTVrNxv1oL_14component2json18validate_tool_name
FN:101,_RNvCslTVrNxv1oL_14component2json19normalize_tool_name
FN:201,_RNvCslTVrNxv1oL_14component2json19type_to_json_schema
FN:354,_RNvCslTVrNxv1oL_14component2json24component_func_to_schema
FN:89,_RNvCslTVrNxv1oL_14component2json24normalize_name_component
FN:125,_RNvCslTVrNxv1oL_14component2json26component_exports_to_tools
FN:150,_RNvCslTVrNxv1oL_14component2json32component_exports_to_json_schema
FN:397,_RNvCslTVrNxv1oL_14component2json39gather_exported_functions_with_metadata
FN:538,_RNCNvCslTVrNxv1oL_14component2json11json_to_val0B3_
FN:546,_RNCNvCslTVrNxv1oL_14component2json11json_to_vals0_0B3_
FN:548,_RNCNvCslTVrNxv1oL_14component2json11json_to_vals1_0B3_
FN:554,_RNCNvCslTVrNxv1oL_14component2json11json_to_vals2_0B3_
FN:556,_RNCNvCslTVrNxv1oL_14component2json11json_to_vals3_0B3_
FN:563,_RNCNvCslTVrNxv1oL_14component2json11json_to_vals4_0B3_
FN:569,_RNCNvCslTVrNxv1oL_14component2json11json_to_vals5_0B3_
FN:571,_RNCNvCslTVrNxv1oL_14component2json11json_to_vals6_0B3_
FN:577,_RNCNvCslTVrNxv1oL_14component2json11json_to_vals7_0B3_
FN:579,_RNCNvCslTVrNxv1oL_14component2json11json_to_vals8_0B3_
FN:585,_RNCNvCslTVrNxv1oL_14component2json11json_to_vals9_0B3_
FN:540,_RNCNvCslTVrNxv1oL_14component2json11json_to_vals_0B3_
FN:587,_RNCNvCslTVrNxv1oL_14component2json11json_to_valsa_0B3_
FN:594,_RNCNvCslTVrNxv1oL_14component2json11json_to_valsb_0B3_
FN:600,_RNCNvCslTVrNxv1oL_14component2json11json_to_valsc_0B3_
FN:601,_RNCNvCslTVrNxv1oL_14component2json11json_to_valsd_0B3_
FN:608,_RNCNvCslTVrNxv1oL_14component2json11json_to_valse_0B3_
FN:639,_RNCNvCslTVrNxv1oL_14component2json11json_to_valsf_0B3_
FN:669,_RNCNvCslTVrNxv1oL_14component2json11json_to_valsg_0B3_
FN:670,_RNCNvCslTVrNxv1oL_14component2json11json_to_valsh_0B3_
FN:674,_RNCNvCslTVrNxv1oL_14component2json11json_to_valsi_0B3_
FN:675,_RNCNvCslTVrNxv1oL_14component2json11json_to_valsj_0B3_
FN:678,_RNCNvCslTVrNxv1oL_14component2json11json_to_valsk_0B3_
FN:692,_RNCNvCslTVrNxv1oL_14component2json11json_to_valsl_0B3_
FN:732,_RNCNvCslTVrNxv1oL_14component2json11json_to_valsm_0B3_
FN:471,_RNCNvCslTVrNxv1oL_14component2json11val_to_json0B3_
FN:524,_RNCNvCslTVrNxv1oL_14component2json11val_to_jsons0_0B3_
FN:474,_RNCNvCslTVrNxv1oL_14component2json11val_to_jsons_0B3_
FN:181,_RNCNvCslTVrNxv1oL_14component2json12json_to_vals0B3_
FN:244,_RNCNvCslTVrNxv1oL_14component2json19type_to_json_schema0B3_
FN:305,_RNCNvCslTVrNxv1oL_14component2json19type_to_json_schemas0_0B3_
FN:300,_RNCNvCslTVrNxv1oL_14component2json19type_to_json_schemas_0B3_
FN:383,_RNCNvCslTVrNxv1oL_14component2json24component_func_to_schema0B3_
FN:92,_RNCNvCslTVrNxv1oL_14component2json24normalize_name_component0B3_
FN:529,_RNvCsdgTjUydvdO_14component2json11json_to_val
FN:458,_RNvCsdgTjUydvdO_14component2json11val_to_json
FN:176,_RNvCsdgTjUydvdO_14component2json12json_to_vals
FN:160,_RNvCsdgTjUydvdO_14component2json12vals_to_json
FN:65,_RNvCsdgTjUydvdO_14component2json18validate_tool_name
FN:101,_RNvCsdgTjUydvdO_14component2json19normalize_tool_name
FN:201,_RNvCsdgTjUydvdO_14component2json19type_to_json_schema
FN:744,_RNvCsdgTjUydvdO_14component2json20default_val_for_type
FN:354,_RNvCsdgTjUydvdO_14component2json24component_func_to_schema
FN:89,_RNvCsdgTjUydvdO_14component2json24normalize_name_component
FN:125,_RNvCsdgTjUydvdO_14component2json26component_exports_to_tools
FN:197,_RNvCsdgTjUydvdO_14component2json26create_placeholder_results
FN:150,_RNvCsdgTjUydvdO_14component2json32component_exports_to_json_schema
FN:397,_RNvCsdgTjUydvdO_14component2json39gather_exported_functions_with_metadata
FN:538,_RNCNvCsdgTjUydvdO_14component2json11json_to_val0B3_
FN:546,_RNCNvCsdgTjUydvdO_14component2json11json_to_vals0_0B3_
FN:548,_RNCNvCsdgTjUydvdO_14component2json11json_to_vals1_0B3_
FN:554,_RNCNvCsdgTjUydvdO_14component2json11json_to_vals2_0B3_
FN:556,_RNCNvCsdgTjUydvdO_14component2json11json_to_vals3_0B3_
FN:563,_RNCNvCsdgTjUydvdO_14component2json11json_to_vals4_0B3_
FN:569,_RNCNvCsdgTjUydvdO_14component2json11json_to_vals5_0B3_
FN:571,_RNCNvCsdgTjUydvdO_14component2json11json_to_vals6_0B3_
FN:577,_RNCNvCsdgTjUydvdO_14component2json11json_to_vals7_0B3_
FN:579,_RNCNvCsdgTjUydvdO_14component2json11json_to_vals8_0B3_
FN:585,_RNCNvCsdgTjUydvdO_14component2json11json_to_vals9_0B3_
FN:540,_RNCNvCsdgTjUydvdO_14component2json11json_to_vals_0B3_
FN:587,_RNCNvCsdgTjUydvdO_14component2json11json_to_valsa_0B3_
FN:594,_RNCNvCsdgTjUydvdO_14component2json11json_to_valsb_0B3_
FN:600,_RNCNvCsdgTjUydvdO_14component2json11json_to_valsc_0B3_
FN:601,_RNCNvCsdgTjUydvdO_14component2json11json_to_valsd_0B3_
FN:608,_RNCNvCsdgTjUydvdO_14component2json11json_to_valse_0B3_
FN:639,_RNCNvCsdgTjUydvdO_14component2json11json_to_valsf_0B3_
FN:669,_RNCNvCsdgTjUydvdO_14component2json11json_to_valsg_0B3_
FN:670,_RNCNvCsdgTjUydvdO_14component2json11json_to_valsh_0B3_
FN:674,_RNCNvCsdgTjUydvdO_14component2json11json_to_valsi_0B3_
FN:675,_RNCNvCsdgTjUydvdO_14component2json11json_to_valsj_0B3_
FN:678,_RNCNvCsdgTjUydvdO_14component2json11json_to_valsk_0B3_
FN:692,_RNCNvCsdgTjUydvdO_14component2json11json_to_valsl_0B3_
FN:732,_RNCNvCsdgTjUydvdO_14component2json11json_to_valsm_0B3_
FN:471,_RNCNvCsdgTjUydvdO_14component2json11val_to_json0B3_
FN:524,_RNCNvCsdgTjUydvdO_14component2json11val_to_jsons0_0B3_
FN:474,_RNCNvCsdgTjUydvdO_14component2json11val_to_jsons_0B3_
FN:181,_RNCNvCsdgTjUydvdO_14component2json12json_to_vals0B3_
FN:244,_RNCNvCsdgTjUydvdO_14component2json19type_to_json_schema0B3_
FN:305,_RNCNvCsdgTjUydvdO_14component2json19type_to_json_schemas0_0B3_
FN:300,_RNCNvCsdgTjUydvdO_14component2json19type_to_json_schemas_0B3_
FN:764,_RNCNvCsdgTjUydvdO_14component2json20default_val_for_type0B3_
FN:777,_RNCNvCsdgTjUydvdO_14component2json20default_val_for_types0_0B3_
FN:769,_RNCNvCsdgTjUydvdO_14component2json20default_val_for_types_0B3_
FN:383,_RNCNvCsdgTjUydvdO_14component2json24component_func_to_schema0B3_
FN:92,_RNCNvCsdgTjUydvdO_14component2json24normalize_name_component0B3_
FNDA:0,_RNCNvCslTVrNxv1oL_14component2json20default_val_for_type0B3_
FNDA:0,_RNCNvCslTVrNxv1oL_14component2json20default_val_for_types0_0B3_
FNDA:0,_RNCNvCslTVrNxv1oL_14component2json20default_val_for_types_0B3_
FNDA:0,_RNvCslTVrNxv1oL_14component2json20default_val_for_type
FNDA:0,_RNvCslTVrNxv1oL_14component2json26create_placeholder_results
FNDA:1,_RNvNtCslTVrNxv1oL_14component2json5testss_14test_roundtrip
FNDA:1,_RNvNtCslTVrNxv1oL_14component2json5testss_17test_json_to_eval
FNDA:1,_RNvNtCslTVrNxv1oL_14component2json5testss_17test_json_to_vals
FNDA:1,_RNvNtCslTVrNxv1oL_14component2json5testss_19test_mcp_compliance
FNDA:1,_RNvNtCslTVrNxv1oL_14component2json5testss_21test_val_to_json_bool
FNDA:1,_RNvNtCslTVrNxv1oL_14component2json5testss_21test_val_to_json_char
FNDA:1,_RNvNtCslTVrNxv1oL_14component2json5testss_21test_val_to_json_enum
FNDA:1,_RNvNtCslTVrNxv1oL_14component2json5testss_21test_val_to_json_list
FNDA:1,_RNvNtCslTVrNxv1oL_14component2json5testss_22test_val_to_json_flags
FNDA:1,_RNvNtCslTVrNxv1oL_14component2json5testss_22test_val_to_json_tuple
FNDA:1,_RNvNtCslTVrNxv1oL_14component2json5testss_23test_json_to_val_errors
FNDA:1,_RNvNtCslTVrNxv1oL_14component2json5testss_23test_val_to_json_floats
FNDA:1,_RNvNtCslTVrNxv1oL_14component2json5testss_23test_val_to_json_option
FNDA:1,_RNvNtCslTVrNxv1oL_14component2json5testss_23test_val_to_json_record
FNDA:1,_RNvNtCslTVrNxv1oL_14component2json5testss_23test_val_to_json_result
FNDA:1,_RNvNtCslTVrNxv1oL_14component2json5testss_23test_val_to_json_string
FNDA:1,_RNvNtCslTVrNxv1oL_14component2json5testss_23test_vals_to_json_empty
FNDA:1,_RNvNtCslTVrNxv1oL_14component2json5testss_24test_json_to_vals_errors
FNDA:1,_RNvNtCslTVrNxv1oL_14component2json5testss_24test_normalize_tool_name
FNDA:1,_RNvNtCslTVrNxv1oL_14component2json5testss_24test_val_to_json_numbers
FNDA:1,_RNvNtCslTVrNxv1oL_14component2json5testss_24test_val_to_json_variant
FNDA:1,_RNvNtCslTVrNxv1oL_14component2json5testss_24test_vals_to_json_single
FNDA:1,_RNvNtCslTVrNxv1oL_14component2json5testss_25test_tool_name_validation
FNDA:1,_RNvNtCslTVrNxv1oL_14component2json5testss_26test_vals_to_json_multiple
FNDA:1,_RNvNtCslTVrNxv1oL_14component2json5testss_27test_root_component_exports
FNDA:1,_RNvNtCslTVrNxv1oL_14component2json5testss_28test_component_exports_empty
FNDA:1,_RNvNtCslTVrNxv1oL_14component2json5testss_28test_wit_to_json_conversions
FNDA:1,_RNvNtCslTVrNxv1oL_14component2json5testss_29test_component_exports_schema
FNDA:1,_RNvNtCslTVrNxv1oL_14component2json5testss_29test_generate_function_schema
FNDA:1,_RNvNtCslTVrNxv1oL_14component2json5testss_29test_normalize_name_component
FNDA:1,_RNvNtCslTVrNxv1oL_14component2json5testss_33test_function_identifier_equality
FNDA:1,_RNvNtCslTVrNxv1oL_14component2json5testss_33test_vals_to_json_multiple_values
FNDA:1,_RNvNtCslTVrNxv1oL_14component2json5testss_35test_simple_tool_name_normalization
FNDA:6,_RNvNvNtCslTVrNxv1oL_14component2json5testss_29test_component_exports_schema9find_tool
FNDA:24,_RNCNCNvNvNtCslTVrNxv1oL_14component2json5testss_29test_component_exports_schema9find_tool00B9_
FNDA:8,_RNCNvNtCslTVrNxv1oL_14component2json5testss_14test_roundtrip0B5_
FNDA:24,_RNCNvNvNtCslTVrNxv1oL_14component2json5testss_29test_component_exports_schema9find_tool0B7_
FNDA:34,_RNvCslTVrNxv1oL_14component2json11json_to_val
FNDA:80,_RNvCslTVrNxv1oL_14component2json11val_to_json
FNDA:3,_RNvCslTVrNxv1oL_14component2json12json_to_vals
FNDA:4,_RNvCslTVrNxv1oL_14component2json12vals_to_json
FNDA:43,_RNvCslTVrNxv1oL_14component2json18validate_tool_name
FNDA:18,_RNvCslTVrNxv1oL_14component2json19normalize_tool_name
FNDA:57,_RNvCslTVrNxv1oL_14component2json19type_to_json_schema
FNDA:13,_RNvCslTVrNxv1oL_14component2json24component_func_to_schema
FNDA:38,_RNvCslTVrNxv1oL_14component2json24normalize_name_component
FNDA:5,_RNvCslTVrNxv1oL_14component2json26component_exports_to_tools
FNDA:4,_RNvCslTVrNxv1oL_14component2json32component_exports_to_json_schema
FNDA:21,_RNvCslTVrNxv1oL_14component2json39gather_exported_functions_with_metadata
FNDA:2,_RNCNvCslTVrNxv1oL_14component2json11json_to_val0B3_
FNDA:0,_RNCNvCslTVrNxv1oL_14component2json11json_to_vals0_0B3_
FNDA:0,_RNCNvCslTVrNxv1oL_14component2json11json_to_vals1_0B3_
FNDA:4,_RNCNvCslTVrNxv1oL_14component2json11json_to_vals2_0B3_
FNDA:0,_RNCNvCslTVrNxv1oL_14component2json11json_to_vals3_0B3_
FNDA:0,_RNCNvCslTVrNxv1oL_14component2json11json_to_vals4_0B3_
FNDA:0,_RNCNvCslTVrNxv1oL_14component2json11json_to_vals5_0B3_
FNDA:0,_RNCNvCslTVrNxv1oL_14component2json11json_to_vals6_0B3_
FNDA:0,_RNCNvCslTVrNxv1oL_14component2json11json_to_vals7_0B3_
FNDA:0,_RNCNvCslTVrNxv1oL_14component2json11json_to_vals8_0B3_
FNDA:2,_RNCNvCslTVrNxv1oL_14component2json11json_to_vals9_0B3_
FNDA:1,_RNCNvCslTVrNxv1oL_14component2json11json_to_vals_0B3_
FNDA:0,_RNCNvCslTVrNxv1oL_14component2json11json_to_valsa_0B3_
FNDA:0,_RNCNvCslTVrNxv1oL_14component2json11json_to_valsb_0B3_
FNDA:0,_RNCNvCslTVrNxv1oL_14component2json11json_to_valsc_0B3_
FNDA:0,_RNCNvCslTVrNxv1oL_14component2json11json_to_valsd_0B3_
FNDA:0,_RNCNvCslTVrNxv1oL_14component2json11json_to_valse_0B3_
FNDA:0,_RNCNvCslTVrNxv1oL_14component2json11json_to_valsf_0B3_
FNDA:2,_RNCNvCslTVrNxv1oL_14component2json11json_to_valsg_0B3_
FNDA:0,_RNCNvCslTVrNxv1oL_14component2json11json_to_valsh_0B3_
FNDA:3,_RNCNvCslTVrNxv1oL_14component2json11json_to_valsi_0B3_
FNDA:0,_RNCNvCslTVrNxv1oL_14component2json11json_to_valsj_0B3_
FNDA:0,_RNCNvCslTVrNxv1oL_14component2json11json_to_valsk_0B3_
FNDA:2,_RNCNvCslTVrNxv1oL_14component2json11json_to_valsl_0B3_
FNDA:3,_RNCNvCslTVrNxv1oL_14component2json11json_to_valsm_0B3_
FNDA:0,_RNCNvCslTVrNxv1oL_14component2json11val_to_json0B3_
FNDA:4,_RNCNvCslTVrNxv1oL_14component2json11val_to_jsons0_0B3_
FNDA:0,_RNCNvCslTVrNxv1oL_14component2json11val_to_jsons_0B3_
FNDA:1,_RNCNvCslTVrNxv1oL_14component2json12json_to_vals0B3_
FNDA:8,_RNCNvCslTVrNxv1oL_14component2json19type_to_json_schema0B3_
FNDA:6,_RNCNvCslTVrNxv1oL_14component2json19type_to_json_schemas0_0B3_
FNDA:6,_RNCNvCslTVrNxv1oL_14component2json19type_to_json_schemas_0B3_
FNDA:0,_RNCNvCslTVrNxv1oL_14component2json24component_func_to_schema0B3_
FNDA:318,_RNCNvCslTVrNxv1oL_14component2json24normalize_name_component0B3_
FNDA:0,_RNvCsdgTjUydvdO_14component2json11json_to_val
FNDA:0,_RNvCsdgTjUydvdO_14component2json11val_to_json
FNDA:0,_RNvCsdgTjUydvdO_14component2json12json_to_vals
FNDA:0,_RNvCsdgTjUydvdO_14component2json12vals_to_json
FNDA:0,_RNvCsdgTjUydvdO_14component2json18validate_tool_name
FNDA:0,_RNvCsdgTjUydvdO_14component2json19normalize_tool_name
FNDA:0,_RNvCsdgTjUydvdO_14component2json19type_to_json_schema
FNDA:0,_RNvCsdgTjUydvdO_14component2json20default_val_for_type
FNDA:0,_RNvCsdgTjUydvdO_14component2json24component_func_to_schema
FNDA:0,_RNvCsdgTjUydvdO_14component2json24normalize_name_component
FNDA:0,_RNvCsdgTjUydvdO_14component2json26component_exports_to_tools
FNDA:0,_RNvCsdgTjUydvdO_14component2json26create_placeholder_results
FNDA:0,_RNvCsdgTjUydvdO_14component2json32component_exports_to_json_schema
FNDA:0,_RNvCsdgTjUydvdO_14component2json39gather_exported_functions_with_metadata
FNDA:0,_RNCNvCsdgTjUydvdO_14component2json11json_to_val0B3_
FNDA:0,_RNCNvCsdgTjUydvdO_14component2json11json_to_vals0_0B3_
FNDA:0,_RNCNvCsdgTjUydvdO_14component2json11json_to_vals1_0B3_
FNDA:0,_RNCNvCsdgTjUydvdO_14component2json11json_to_vals2_0B3_
FNDA:0,_RNCNvCsdgTjUydvdO_14component2json11json_to_vals3_0B3_
FNDA:0,_RNCNvCsdgTjUydvdO_14component2json11json_to_vals4_0B3_
FNDA:0,_RNCNvCsdgTjUydvdO_14component2json11json_to_vals5_0B3_
FNDA:0,_RNCNvCsdgTjUydvdO_14component2json11json_to_vals6_0B3_
FNDA:0,_RNCNvCsdgTjUydvdO_14component2json11json_to_vals7_0B3_
FNDA:0,_RNCNvCsdgTjUydvdO_14component2json11json_to_vals8_0B3_
FNDA:0,_RNCNvCsdgTjUydvdO_14component2json11json_to_vals9_0B3_
FNDA:0,_RNCNvCsdgTjUydvdO_14component2json11json_to_vals_0B3_
FNDA:0,_RNCNvCsdgTjUydvdO_14component2json11json_to_valsa_0B3_
FNDA:0,_RNCNvCsdgTjUydvdO_14component2json11json_to_valsb_0B3_
FNDA:0,_RNCNvCsdgTjUydvdO_14component2json11json_to_valsc_0B3_
FNDA:0,_RNCNvCsdgTjUydvdO_14component2json11json_to_valsd_0B3_
FNDA:0,_RNCNvCsdgTjUydvdO_14component2json11json_to_valse_0B3_
FNDA:0,_RNCNvCsdgTjUydvdO_14component2json11json_to_valsf_0B3_
FNDA:0,_RNCNvCsdgTjUydvdO_14component2json11json_to_valsg_0B3_
FNDA:0,_RNCNvCsdgTjUydvdO_14component2json11json_to_valsh_0B3_
FNDA:0,_RNCNvCsdgTjUydvdO_14component2json11json_to_valsi_0B3_
FNDA:0,_RNCNvCsdgTjUydvdO_14component2json11json_to_valsj_0B3_
FNDA:0,_RNCNvCsdgTjUydvdO_14component2json11json_to_valsk_0B3_
FNDA:0,_RNCNvCsdgTjUydvdO_14component2json11json_to_valsl_0B3_
FNDA:0,_RNCNvCsdgTjUydvdO_14component2json11json_to_valsm_0B3_
FNDA:0,_RNCNvCsdgTjUydvdO_14component2json11val_to_json0B3_
FNDA:0,_RNCNvCsdgTjUydvdO_14component2json11val_to_jsons0_0B3_
FNDA:0,_RNCNvCsdgTjUydvdO_14component2json11val_to_jsons_0B3_
FNDA:0,_RNCNvCsdgTjUydvdO_14component2json12json_to_vals0B3_
FNDA:0,_RNCNvCsdgTjUydvdO_14component2json19type_to_json_schema0B3_
FNDA:0,_RNCNvCsdgTjUydvdO_14component2json19type_to_json_schemas0_0B3_
FNDA:0,_RNCNvCsdgTjUydvdO_14component2json19type_to_json_schemas_0B3_
FNDA:0,_RNCNvCsdgTjUydvdO_14component2json20default_val_for_type0B3_
FNDA:0,_RNCNvCsdgTjUydvdO_14component2json20default_val_for_types0_0B3_
FNDA:0,_RNCNvCsdgTjUydvdO_14component2json20default_val_for_types_0B3_
FNDA:0,_RNCNvCsdgTjUydvdO_14component2json24component_func_to_schema0B3_
FNDA:0,_RNCNvCsdgTjUydvdO_14component2json24normalize_name_component0B3_
FNF:88
FNH:63
DA:65,43
DA:66,43
DA:67,1
DA:68,42
DA:70,42
DA:71,1
DA:72,1
DA:73,1
DA:74,41
DA:77,704
DA:78,704
DA:79,6
DA:80,6
DA:81,6
DA:82,698
DA:85,35
DA:86,43
DA:89,38
DA:90,38
DA:91,38
DA:92,318
DA:93,13
DA:94,318
DA:95,2
DA:96,331
DA:97,38
DA:98,38
DA:101,18
DA:102,18
DA:104,18
DA:105,3
DA:106,15
DA:108,18
DA:109,9
DA:110,9
DA:112,18
DA:114,18
DA:117,18
DA:119,18
DA:120,18
DA:125,5
DA:126,5
DA:127,5
DA:128,5
DA:129,5
DA:130,5
DA:132,11
DA:133,11
DA:134,11
DA:135,11
DA:136,11
DA:137,11
DA:138,11
DA:139,11
DA:140,11
DA:141,11
DA:142,11
DA:144,5
DA:145,5
DA:150,4
DA:151,4
DA:152,4
DA:153,4
DA:154,4
DA:155,4
DA:156,4
DA:157,4
DA:160,4
DA:161,4
DA:162,1
DA:163,1
DA:165,2
DA:166,4
DA:167,4
DA:168,4
DA:169,2
DA:172,4
DA:176,3
DA:177,3
DA:178,3
DA:179,3
DA:180,7
DA:181,6
DA:182,1
DA:183,1
DA:184,5
DA:186,1
DA:188,0
DA:189,0
DA:190,0
DA:191,0
DA:193,3
DA:197,0
DA:198,0
DA:199,0
DA:201,57
DA:202,57
DA:203,0
DA:213,14
DA:214,0
DA:215,0
DA:216,0
DA:218,24
DA:221,7
DA:222,7
DA:223,7
DA:224,7
DA:225,7
DA:229,0
DA:230,0
DA:231,0
DA:232,0
DA:233,0
DA:234,0
DA:235,0
DA:236,0
DA:237,0
DA:238,0
DA:239,0
DA:243,3
DA:244,8
DA:245,3
DA:246,3
DA:247,3
DA:248,3
DA:249,3
DA:253,2
DA:254,2
DA:255,6
DA:256,6
DA:257,6
DA:258,4
DA:259,4
DA:260,4
DA:261,4
DA:262,4
DA:263,4
DA:264,4
DA:265,4
DA:266,4
DA:267,2
DA:268,2
DA:269,2
DA:270,2
DA:271,2
DA:272,2
DA:273,2
DA:274,2
DA:276,2
DA:279,0
DA:280,0
DA:281,0
DA:282,0
DA:283,0
DA:287,0
DA:288,0
DA:289,0
DA:290,0
DA:291,0
DA:297,6
DA:298,6
DA:299,6
DA:300,6
DA:301,6
DA:303,6
DA:304,6
DA:305,6
DA:306,6
DA:308,6
DA:309,6
DA:311,6
DA:312,6
DA:313,6
DA:315,6
DA:318,6
DA:319,6
DA:320,6
DA:322,6
DA:328,1
DA:329,1
DA:330,3
DA:331,3
DA:332,3
DA:333,1
DA:334,1
DA:335,1
DA:339,0
DA:340,0
DA:341,0
DA:342,0
DA:345,0
DA:346,0
DA:347,0
DA:348,0
DA:352,57
DA:354,13
DA:355,13
DA:356,13
DA:358,16
DA:359,16
DA:360,16
DA:361,16
DA:363,13
DA:364,13
DA:365,13
DA:366,13
DA:369,13
DA:370,13
DA:371,13
DA:372,13
DA:373,13
DA:375,13
DA:377,13
DA:378,13
DA:379,13
DA:380,3
DA:381,10
DA:383,0
DA:384,0
DA:385,0
DA:386,0
DA:387,0
DA:390,13
DA:391,10
DA:392,10
DA:393,0
DA:394,13
DA:395,13
DA:397,21
DA:398,21
DA:399,21
DA:400,21
DA:401,21
DA:402,21
DA:403,21
DA:404,21
DA:405,21
DA:406,21
DA:407,13
DA:408,13
DA:409,13
DA:410,13
DA:411,13
DA:412,13
DA:413,13
DA:414,13
DA:415,13
DA:416,13
DA:417,13
DA:418,13
DA:419,13
DA:420,13
DA:421,13
DA:422,13
DA:423,4
DA:424,4
DA:425,4
DA:426,4
DA:427,4
DA:428,4
DA:429,4
DA:430,4
DA:431,4
DA:432,4
DA:433,4
DA:434,4
DA:435,4
DA:437,2
DA:438,2
DA:439,6
DA:440,6
DA:441,6
DA:442,6
DA:443,6
DA:444,6
DA:445,6
DA:446,6
DA:447,6
DA:448,6
DA:449,6
DA:454,2
DA:456,21
DA:458,80
DA:459,4
DA:460,9
DA:461,1
DA:462,1
DA:463,1
DA:464,1
DA:465,4
DA:466,3
DA:467,9
DA:468,2
DA:469,1
DA:470,1
DA:471,1
DA:472,1
DA:473,1
DA:474,1
DA:475,1
DA:476,16
DA:478,3
DA:479,4
DA:480,4
DA:481,12
DA:482,8
DA:483,8
DA:484,4
DA:486,4
DA:488,4
DA:489,4
DA:490,4
DA:491,4
DA:492,3
DA:493,3
DA:494,4
DA:496,2
DA:498,2
DA:499,2
DA:501,4
DA:502,4
DA:503,4
DA:504,4
DA:505,4
DA:506,3
DA:507,1
DA:510,4
DA:512,3
DA:513,3
DA:514,3
DA:515,3
DA:516,3
DA:517,2
DA:518,1
DA:521,3
DA:524,4
DA:525,0
DA:527,80
DA:529,34
DA:530,34
DA:531,5
DA:532,4
DA:533,1
DA:535,2
DA:536,2
DA:537,2
DA:538,2
DA:539,2
DA:540,2
DA:541,0
DA:543,0
DA:544,0
DA:545,0
DA:546,0
DA:547,0
DA:548,0
DA:549,0
DA:551,5
DA:552,4
DA:553,4
DA:554,4
DA:555,4
DA:556,4
DA:557,1
DA:559,0
DA:560,0
DA:561,0
DA:562,0
DA:563,0
DA:564,0
DA:566,0
DA:567,0
DA:568,0
DA:569,0
DA:570,0
DA:571,0
DA:572,0
DA:574,0
DA:575,0
DA:576,0
DA:577,0
DA:578,0
DA:579,0
DA:580,0
DA:582,2
DA:583,2
DA:584,2
DA:585,2
DA:586,2
DA:587,2
DA:588,0
DA:590,1
DA:591,1
DA:592,1
DA:593,1
DA:594,1
DA:595,0
DA:597,0
DA:598,0
DA:599,0
DA:600,0
DA:601,0
DA:602,0
DA:604,0
DA:605,0
DA:606,0
DA:607,0
DA:608,0
DA:609,0
DA:611,0
DA:612,0
DA:613,0
DA:614,0
DA:616,0
DA:619,0
DA:621,7
DA:622,7
DA:623,0
DA:625,1
DA:626,1
DA:627,1
DA:628,3
DA:629,2
DA:631,1
DA:633,0
DA:635,2
DA:636,2
DA:637,2
DA:638,4
DA:639,4
DA:640,0
DA:641,0
DA:642,4
DA:644,2
DA:646,0
DA:648,3
DA:649,3
DA:650,3
DA:651,3
DA:652,0
DA:653,0
DA:654,0
DA:655,0
DA:656,3
DA:657,3
DA:658,6
DA:659,6
DA:661,3
DA:663,0
DA:665,2
DA:666,2
DA:667,2
DA:668,2
DA:669,2
DA:670,2
DA:672,2
DA:673,2
DA:674,3
DA:675,2
DA:677,2
DA:678,2
DA:679,0
DA:680,0
DA:681,2
DA:683,0
DA:686,2
DA:688,0
DA:690,1
DA:691,1
DA:692,2
DA:693,1
DA:695,0
DA:696,0
DA:697,0
DA:698,0
DA:701,0
DA:703,1
DA:704,0
DA:705,1
DA:706,1
DA:707,1
DA:708,0
DA:710,1
DA:711,1
DA:712,1
DA:713,1
DA:714,1
DA:715,1
DA:716,0
DA:717,0
DA:718,0
DA:719,0
DA:720,0
DA:721,0
DA:723,0
DA:726,0
DA:728,1
DA:729,1
DA:730,1
DA:731,2
DA:732,3
DA:733,2
DA:734,2
DA:736,1
DA:738,0
DA:740,0
DA:742,34
DA:744,0
DA:745,0
DA:746,0
DA:747,0
DA:748,0
DA:749,0
DA:750,0
DA:751,0
DA:752,0
DA:753,0
DA:754,0
DA:755,0
DA:756,0
DA:757,0
DA:758,0
DA:759,0
DA:761,0
DA:762,0
DA:763,0
DA:764,0
DA:765,0
DA:766,0
DA:768,0
DA:769,0
DA:770,0
DA:772,0
DA:774,0
DA:775,0
DA:776,0
DA:777,0
DA:778,0
DA:780,0
DA:783,0
DA:784,0
DA:785,0
DA:786,0
DA:790,0
DA:793,0
DA:803,1
DA:804,1
DA:805,1
DA:806,1
DA:809,1
DA:810,1
DA:811,1
DA:812,1
DA:813,1
DA:816,1
DA:817,1
DA:818,1
DA:820,1
DA:821,1
DA:822,1
DA:823,1
DA:826,1
DA:827,1
DA:828,1
DA:829,1
DA:832,1
DA:833,1
DA:834,1
DA:836,1
DA:837,1
DA:839,1
DA:840,1
DA:842,1
DA:843,1
DA:845,1
DA:846,1
DA:848,1
DA:849,1
DA:851,1
DA:852,1
DA:854,1
DA:855,1
DA:856,1
DA:860,1
DA:861,1
DA:862,1
DA:863,1
DA:865,0
DA:868,1
DA:869,1
DA:870,1
DA:872,0
DA:874,1
DA:877,1
DA:878,1
DA:879,1
DA:880,1
DA:883,1
DA:884,1
DA:885,1
DA:886,1
DA:889,1
DA:890,1
DA:891,1
DA:892,1
DA:895,1
DA:896,1
DA:897,1
DA:898,1
DA:899,1
DA:900,1
DA:901,1
DA:902,1
DA:903,1
DA:904,1
DA:907,1
DA:908,1
DA:909,1
DA:910,1
DA:913,1
DA:914,1
DA:915,1
DA:916,1
DA:917,1
DA:918,1
DA:920,1
DA:921,1
DA:922,1
DA:923,1
DA:924,1
DA:925,1
DA:928,1
DA:929,1
DA:930,1
DA:931,1
DA:934,1
DA:935,1
DA:936,1
DA:938,1
DA:939,1
DA:940,1
DA:943,1
DA:944,1
DA:945,1
DA:946,1
DA:947,1
DA:949,1
DA:950,1
DA:951,1
DA:952,1
DA:954,1
DA:955,1
DA:956,1
DA:957,1
DA:959,1
DA:960,1
DA:961,1
DA:962,1
DA:963,1
DA:966,1
DA:967,1
DA:968,1
DA:969,1
DA:972,1
DA:973,1
DA:975,1
DA:976,1
DA:977,1
DA:978,1
DA:979,1
DA:980,1
DA:983,1
DA:984,1
DA:985,1
DA:986,1
DA:987,1
DA:988,1
DA:989,1
DA:991,1
DA:992,1
DA:994,1
DA:995,1
DA:996,1
DA:997,1
DA:998,1
DA:999,1
DA:1001,4
DA:1002,4
DA:1004,4
DA:1005,4
DA:1006,4
DA:1008,4
DA:1009,1
DA:1010,3
DA:1012,4
DA:1013,4
DA:1014,1
DA:1015,1
DA:1016,1
DA:1017,1
DA:1018,1
DA:1019,1
DA:1020,1
DA:1021,1
DA:1022,1
DA:1025,3
DA:1026,3
DA:1027,3
DA:1028,3
DA:1029,3
DA:1030,3
DA:1031,3
DA:1032,3
DA:1033,3
DA:1037,1
DA:1040,1
DA:1041,1
DA:1042,1
DA:1043,1
DA:1044,1
DA:1045,1
DA:1046,1
DA:1047,1
DA:1048,1
DA:1049,1
DA:1050,1
DA:1051,1
DA:1052,1
DA:1053,1
DA:1054,1
DA:1055,1
DA:1056,1
DA:1057,1
DA:1058,1
DA:1059,1
DA:1061,1
DA:1062,1
DA:1064,1
DA:1065,1
DA:1067,1
DA:1068,1
DA:1069,1
DA:1070,1
DA:1072,1
DA:1073,1
DA:1074,1
DA:1077,1
DA:1078,1
DA:1079,1
DA:1080,1
DA:1083,1
DA:1084,1
DA:1085,1
DA:1086,1
DA:1087,1
DA:1088,1
DA:1089,1
DA:1090,1
DA:1091,1
DA:1092,1
DA:1093,1
DA:1094,1
DA:1095,1
DA:1096,1
DA:1097,1
DA:1098,1
DA:1099,1
DA:1100,1
DA:1101,1
DA:1102,1
DA:1103,1
DA:1104,1
DA:1105,1
DA:1106,1
DA:1107,1
DA:1108,1
DA:1109,1
DA:1110,1
DA:1111,1
DA:1112,1
DA:1113,1
DA:1114,1
DA:1115,1
DA:1116,1
DA:1117,1
DA:1118,1
DA:1119,1
DA:1120,1
DA:1121,1
DA:1122,1
DA:1123,1
DA:1124,1
DA:1125,1
DA:1126,1
DA:1127,1
DA:1128,1
DA:1129,1
DA:1130,1
DA:1131,1
DA:1132,1
DA:1133,1
DA:1134,1
DA:1135,1
DA:1136,1
DA:1137,1
DA:1138,1
DA:1139,1
DA:1140,1
DA:1141,1
DA:1142,1
DA:1143,1
DA:1144,1
DA:1145,1
DA:1146,1
DA:1147,1
DA:1148,1
DA:1149,1
DA:1150,1
DA:1151,1
DA:1152,1
DA:1153,1
DA:1154,1
DA:1155,1
DA:1156,1
DA:1157,1
DA:1158,1
DA:1159,1
DA:1160,1
DA:1161,1
DA:1162,1
DA:1163,1
DA:1164,1
DA:1165,1
DA:1166,1
DA:1167,1
DA:1168,1
DA:1169,1
DA:1170,1
DA:1171,1
DA:1172,1
DA:1173,1
DA:1174,1
DA:1175,1
DA:1176,1
DA:1177,1
DA:1178,1
DA:1179,1
DA:1180,1
DA:1181,1
DA:1182,1
DA:1183,1
DA:1184,1
DA:1185,1
DA:1186,1
DA:1187,1
DA:1188,1
DA:1189,1
DA:1190,1
DA:1191,1
DA:1192,1
DA:1193,1
DA:1194,1
DA:1195,1
DA:1196,1
DA:1197,1
DA:1198,1
DA:1199,1
DA:1200,1
DA:1201,1
DA:1202,1
DA:1203,1
DA:1204,1
DA:1205,1
DA:1206,1
DA:1207,1
DA:1208,1
DA:1209,1
DA:1210,1
DA:1211,1
DA:1212,1
DA:1213,1
DA:1214,1
DA:1215,1
DA:1216,1
DA:1217,1
DA:1218,1
DA:1219,1
DA:1220,1
DA:1221,1
DA:1222,1
DA:1223,1
DA:1225,1
DA:1226,1
DA:1228,6
DA:1229,6
DA:1230,6
DA:1231,24
DA:1232,6
DA:1235,1
DA:1236,1
DA:1237,1
DA:1238,1
DA:1239,1
DA:1240,1
DA:1241,1
DA:1242,1
DA:1244,1
DA:1245,1
DA:1246,1
DA:1247,1
DA:1248,1
DA:1249,1
DA:1250,1
DA:1251,1
DA:1252,1
DA:1253,1
DA:1255,1
DA:1256,1
DA:1257,1
DA:1258,1
DA:1259,1
DA:1260,1
DA:1261,1
DA:1262,1
DA:1263,1
DA:1264,1
DA:1265,1
DA:1266,5
DA:1267,4
DA:1271,1
DA:1272,1
DA:1273,1
DA:1274,1
DA:1275,1
DA:1276,1
DA:1277,1
DA:1278,1
DA:1280,1
DA:1282,1
DA:1283,1
DA:1284,1
DA:1285,1
DA:1286,1
DA:1287,1
DA:1288,1
DA:1289,1
DA:1290,1
DA:1292,1
DA:1293,1
DA:1294,1
DA:1296,1
DA:1297,1
DA:1298,1
DA:1299,1
DA:1300,1
DA:1301,1
DA:1302,1
DA:1303,1
DA:1304,1
DA:1308,1
DA:1309,1
DA:1310,1
DA:1311,1
DA:1312,1
DA:1313,1
DA:1314,1
DA:1315,1
DA:1316,1
DA:1319,1
DA:1320,1
DA:1321,1
DA:1322,1
DA:1323,1
DA:1324,1
DA:1325,1
DA:1326,1
DA:1330,1
DA:1331,1
DA:1332,1
DA:1333,1
DA:1334,1
DA:1335,1
DA:1336,1
DA:1337,1
DA:1338,1
DA:1341,1
DA:1342,1
DA:1343,1
DA:1344,1
DA:1345,1
DA:1346,1
DA:1347,1
DA:1348,1
DA:1353,1
DA:1355,1
DA:1356,1
DA:1357,1
DA:1358,1
DA:1359,1
DA:1360,1
DA:1361,1
DA:1362,1
DA:1363,1
DA:1365,1
DA:1366,1
DA:1368,1
DA:1371,1
DA:1372,1
DA:1373,1
DA:1375,1
DA:1376,1
DA:1378,1
DA:1379,1
DA:1381,1
DA:1382,1
DA:1383,1
DA:1384,1
DA:1385,1
DA:1386,1
DA:1387,1
DA:1388,1
DA:1389,1
DA:1393,1
DA:1394,1
DA:1395,1
DA:1396,1
DA:1398,1
DA:1399,1
DA:1400,1
DA:1401,1
DA:1402,1
DA:1405,1
DA:1406,1
DA:1407,1
DA:1409,1
DA:1410,1
DA:1411,1
DA:1412,1
DA:1415,1
DA:1416,1
DA:1417,1
DA:1418,1
DA:1419,1
DA:1423,1
DA:1424,1
DA:1425,1
DA:1427,1
DA:1428,1
DA:1429,1
DA:1430,1
DA:1431,1
DA:1433,1
DA:1436,1
DA:1437,1
DA:1438,1
DA:1439,1
DA:1441,1
DA:1442,1
DA:1443,1
DA:1445,1
DA:1446,1
DA:1447,1
DA:1448,1
DA:1449,1
DA:1452,1
DA:1453,1
DA:1454,1
DA:1455,1
DA:1457,1
DA:1458,1
DA:1459,1
DA:1460,1
DA:1463,1
DA:1464,1
DA:1465,1
DA:1466,1
DA:1468,1
DA:1469,1
DA:1471,1
DA:1472,1
DA:1473,1
DA:1475,1
DA:1476,1
DA:1479,1
DA:1480,1
DA:1481,1
DA:1482,1
DA:1486,1
DA:1487,1
DA:1488,1
DA:1489,1
DA:1490,1
DA:1491,1
DA:1492,1
DA:1493,1
DA:1494,1
DA:1495,1
DA:1496,1
DA:1497,1
DA:1498,1
DA:1499,1
DA:1500,1
DA:1501,1
DA:1502,1
DA:1503,1
DA:1504,1
DA:1505,1
DA:1506,1
DA:1507,1
DA:1508,1
DA:1509,1
DA:1510,1
DA:1511,1
DA:1512,1
DA:1513,1
DA:1514,1
DA:1515,1
DA:1516,1
DA:1517,1
DA:1518,1
DA:1519,1
DA:1520,1
DA:1521,1
DA:1522,1
DA:1523,1
DA:1524,1
DA:1525,1
DA:1526,1
DA:1527,1
DA:1528,1
DA:1529,1
DA:1530,1
DA:1531,1
DA:1532,1
DA:1533,1
DA:1534,1
DA:1535,1
DA:1536,1
DA:1537,1
DA:1538,1
DA:1539,1
DA:1540,1
DA:1541,1
DA:1542,1
DA:1543,1
DA:1544,1
DA:1545,1
DA:1546,1
DA:1547,1
DA:1548,1
DA:1549,1
DA:1550,1
DA:1551,1
DA:1552,1
DA:1553,1
DA:1554,1
DA:1555,1
DA:1556,1
DA:1557,1
DA:1558,1
DA:1559,1
DA:1560,1
DA:1561,1
DA:1562,1
DA:1563,1
DA:1564,1
DA:1565,1
DA:1566,1
DA:1567,1
DA:1568,1
DA:1569,1
DA:1571,1
DA:1572,1
DA:1573,1
DA:1574,0
DA:1577,1
DA:1578,1
DA:1579,1
DA:1580,1
DA:1581,1
DA:1582,0
DA:1585,8
DA:1587,8
DA:1588,0
DA:1589,8
DA:1591,1
DA:1592,1
DA:1593,1
DA:1594,1
DA:1595,1
DA:1596,1
DA:1597,1
DA:1598,1
DA:1600,1
DA:1601,1
DA:1602,1
DA:1603,1
DA:1604,1
DA:1605,1
DA:1606,1
DA:1607,1
DA:1609,1
DA:1610,1
DA:1611,1
DA:1612,1
DA:1613,1
DA:1615,1
DA:1616,1
DA:1617,1
DA:1618,1
DA:1619,1
DA:1621,1
DA:1622,1
DA:1623,1
DA:1624,1
DA:1625,1
DA:1626,1
DA:1627,1
DA:1628,1
DA:1629,1
DA:1631,1
DA:1632,1
DA:1633,1
DA:1634,1
DA:1635,1
DA:1636,1
DA:1638,1
DA:1639,1
DA:1640,1
DA:1641,1
DA:1642,1
DA:1644,1
DA:1645,1
DA:1646,1
DA:1647,1
DA:1648,1
DA:1649,1
DA:1650,1
DA:1651,1
DA:1652,1
DA:1655,1
DA:1657,1
DA:1658,1
DA:1659,1
DA:1660,1
DA:1661,1
DA:1662,1
DA:1663,1
DA:1666,1
DA:1667,1
DA:1668,1
DA:1669,1
DA:1670,1
DA:1671,1
DA:1672,1
DA:1675,1
DA:1676,1
DA:1679,1
DA:1680,1
DA:1681,1
DA:1684,1
DA:1685,1
DA:1686,1
DA:1687,1
DA:1690,1
DA:1691,1
DA:1692,1
DA:1695,1
DA:1696,1
DA:1697,1
DA:1698,1
DA:1699,1
DA:1702,1
DA:1705,1
DA:1706,1
DA:1707,1
DA:1708,1
DA:1709,1
DA:1710,1
DA:1711,1
DA:1712,1
DA:1713,1
DA:1714,1
DA:1715,1
DA:1716,1
DA:1717,1
DA:1718,1
DA:1719,1
DA:1720,1
DA:1721,1
DA:1722,1
DA:1723,1
DA:1724,1
DA:1725,1
DA:1726,1
DA:1727,1
DA:1728,1
DA:1729,1
DA:1730,1
DA:1731,1
DA:1732,1
DA:1733,1
DA:1734,1
DA:1735,1
DA:1736,1
DA:1737,1
DA:1738,1
DA:1739,1
DA:1740,1
DA:1741,1
DA:1742,1
DA:1743,1
DA:1744,1
DA:1745,1
DA:1746,1
DA:1749,6
DA:1750,5
DA:1751,5
DA:1752,5
DA:1754,1
DA:1757,1
DA:1758,1
DA:1759,1
DA:1760,1
DA:1761,1
DA:1762,1
DA:1764,1
DA:1765,1
DA:1766,1
DA:1767,1
DA:1768,1
DA:1770,1
DA:1771,1
DA:1772,1
DA:1773,1
DA:1774,1
DA:1776,1
DA:1777,1
DA:1778,1
DA:1781,1
DA:1783,1
DA:1785,1
DA:1786,1
DA:1789,4
DA:1790,3
DA:1791,3
DA:1792,0
DA:1795,1
DA:1798,1
DA:1800,1
DA:1801,1
DA:1802,1
DA:1805,1
DA:1806,1
DA:1807,1
DA:1808,1
DA:1809,1
DA:1810,1
DA:1811,1
DA:1812,1
DA:1813,1
DA:1814,1
DA:1815,1
DA:1816,1
DA:1817,1
DA:1818,1
DA:1819,1
DA:1820,1
DA:1822,1
DA:1823,1
DA:1826,1
DA:1828,1
DA:1831,1
DA:1834,1
DA:1837,1
DA:1838,1
DA:1843,1
DA:1844,1
DA:1847,1
DA:1849,1
DA:1850,1
BRF:0
BRH:0
LF:1424
LH:1229
end_of_record
SF:/home/runner/work/wassette/wassette/crates/mcp-server/src/components.rs
FN:204,_RNCNCNCNCNCNvNtCsfVGYiQvi1X6_10mcp_server10components22handle_list_components00000Bd_
FN:205,_RNCNCNCNCNCNvNtCsfVGYiQvi1X6_10mcp_server10components22handle_list_components0000s_0Bd_
FN:199,_RNCNCNCNCNvNtCsfVGYiQvi1X6_10mcp_server10components22handle_list_components0000Bb_
FN:26,_RNCNCNCNvNtCsfVGYiQvi1X6_10mcp_server10components19get_component_tools000B9_
FN:165,_RNCNCNCNvNtCsfVGYiQvi1X6_10mcp_server10components21handle_component_call000B9_
FN:50,_RNCNCNCNvNtCsfVGYiQvi1X6_10mcp_server10components21handle_load_component000B9_
FN:51,_RNCNCNCNvNtCsfVGYiQvi1X6_10mcp_server10components21handle_load_component00s_0B9_
FN:220,_RNCNCNCNvNtCsfVGYiQvi1X6_10mcp_server10components22handle_list_components000B9_
FN:106,_RNCNCNCNvNtCsfVGYiQvi1X6_10mcp_server10components23handle_unload_component000B9_
FN:107,_RNCNCNCNvNtCsfVGYiQvi1X6_10mcp_server10components23handle_unload_component00s_0B9_
FN:16,_RNCNvNtCsfVGYiQvi1X6_10mcp_server10components19get_component_tools0B5_
FN:156,_RNCNvNtCsfVGYiQvi1X6_10mcp_server10components21handle_component_call0B5_
FN:46,_RNCNvNtCsfVGYiQvi1X6_10mcp_server10components21handle_load_component0B5_
FN:193,_RNCNvNtCsfVGYiQvi1X6_10mcp_server10components22handle_list_components0B5_
FN:101,_RNCNvNtCsfVGYiQvi1X6_10mcp_server10components23handle_unload_component0B5_
FN:16,_RNvNtCsfVGYiQvi1X6_10mcp_server10components19get_component_tools
FN:153,_RNvNtCsfVGYiQvi1X6_10mcp_server10components21handle_component_call
FN:42,_RNvNtCsfVGYiQvi1X6_10mcp_server10components21handle_load_component
FN:191,_RNvNtCsfVGYiQvi1X6_10mcp_server10components22handle_list_components
FN:97,_RNvNtCsfVGYiQvi1X6_10mcp_server10components23handle_unload_component
FN:252,_RNvNtCsfVGYiQvi1X6_10mcp_server10components17parse_tool_schema
FN:238,_RNvNtCsfVGYiQvi1X6_10mcp_server10components25extract_args_from_request
FN:255,_RNCNvNtCsfVGYiQvi1X6_10mcp_server10components17parse_tool_schema0B5_
FN:260,_RNCNvNtCsfVGYiQvi1X6_10mcp_server10components17parse_tool_schemas_0B5_
FN:280,_RNvNtNtCsfVGYiQvi1X6_10mcp_server10components5testss_22test_parse_tool_schema
FN:255,_RNCNvNtCs3lZzujog2fP_10mcp_server10components17parse_tool_schema0B5_
FN:260,_RNCNvNtCs3lZzujog2fP_10mcp_server10components17parse_tool_schemas_0B5_
FN:252,_RNvNtCs3lZzujog2fP_10mcp_server10components17parse_tool_schema
FN:16,_RNvNtCs3lZzujog2fP_10mcp_server10components19get_component_tools
FN:153,_RNvNtCs3lZzujog2fP_10mcp_server10components21handle_component_call
FN:42,_RNvNtCs3lZzujog2fP_10mcp_server10components21handle_load_component
FN:191,_RNvNtCs3lZzujog2fP_10mcp_server10components22handle_list_components
FN:97,_RNvNtCs3lZzujog2fP_10mcp_server10components23handle_unload_component
FN:238,_RNvNtCs3lZzujog2fP_10mcp_server10components25extract_args_from_request
FN:204,_RNCNCNCNCNCNvNtCs3lZzujog2fP_10mcp_server10components22handle_list_components00000Bd_
FN:205,_RNCNCNCNCNCNvNtCs3lZzujog2fP_10mcp_server10components22handle_list_components0000s_0Bd_
FN:199,_RNCNCNCNCNvNtCs3lZzujog2fP_10mcp_server10components22handle_list_components0000Bb_
FN:26,_RNCNCNCNvNtCs3lZzujog2fP_10mcp_server10components19get_component_tools000B9_
FN:165,_RNCNCNCNvNtCs3lZzujog2fP_10mcp_server10components21handle_component_call000B9_
FN:50,_RNCNCNCNvNtCs3lZzujog2fP_10mcp_server10components21handle_load_component000B9_
FN:51,_RNCNCNCNvNtCs3lZzujog2fP_10mcp_server10components21handle_load_component00s_0B9_
FN:220,_RNCNCNCNvNtCs3lZzujog2fP_10mcp_server10components22handle_list_components000B9_
FN:106,_RNCNCNCNvNtCs3lZzujog2fP_10mcp_server10components23handle_unload_component000B9_
FN:107,_RNCNCNCNvNtCs3lZzujog2fP_10mcp_server10components23handle_unload_component00s_0B9_
FN:16,_RNCNvNtCs3lZzujog2fP_10mcp_server10components19get_component_tools0B5_
FN:156,_RNCNvNtCs3lZzujog2fP_10mcp_server10components21handle_component_call0B5_
FN:46,_RNCNvNtCs3lZzujog2fP_10mcp_server10components21handle_load_component0B5_
FN:193,_RNCNvNtCs3lZzujog2fP_10mcp_server10components22handle_list_components0B5_
FN:101,_RNCNvNtCs3lZzujog2fP_10mcp_server10components23handle_unload_component0B5_
FNDA:0,_RNCNCNCNCNCNvNtCsfVGYiQvi1X6_10mcp_server10components22handle_list_components00000Bd_
FNDA:0,_RNCNCNCNCNCNvNtCsfVGYiQvi1X6_10mcp_server10components22handle_list_components0000s_0Bd_
FNDA:0,_RNCNCNCNCNvNtCsfVGYiQvi1X6_10mcp_server10components22handle_list_components0000Bb_
FNDA:0,_RNCNCNCNvNtCsfVGYiQvi1X6_10mcp_server10components19get_component_tools000B9_
FNDA:0,_RNCNCNCNvNtCsfVGYiQvi1X6_10mcp_server10components21handle_component_call000B9_
FNDA:0,_RNCNCNCNvNtCsfVGYiQvi1X6_10mcp_server10components21handle_load_component000B9_
FNDA:0,_RNCNCNCNvNtCsfVGYiQvi1X6_10mcp_server10components21handle_load_component00s_0B9_
FNDA:0,_RNCNCNCNvNtCsfVGYiQvi1X6_10mcp_server10components22handle_list_components000B9_
FNDA:0,_RNCNCNCNvNtCsfVGYiQvi1X6_10mcp_server10components23handle_unload_component000B9_
FNDA:0,_RNCNCNCNvNtCsfVGYiQvi1X6_10mcp_server10components23handle_unload_component00s_0B9_
FNDA:0,_RNCNvNtCsfVGYiQvi1X6_10mcp_server10components19get_component_tools0B5_
FNDA:0,_RNCNvNtCsfVGYiQvi1X6_10mcp_server10components21handle_component_call0B5_
FNDA:0,_RNCNvNtCsfVGYiQvi1X6_10mcp_server10components21handle_load_component0B5_
FNDA:0,_RNCNvNtCsfVGYiQvi1X6_10mcp_server10components22handle_list_components0B5_
FNDA:0,_RNCNvNtCsfVGYiQvi1X6_10mcp_server10components23handle_unload_component0B5_
FNDA:0,_RNvNtCsfVGYiQvi1X6_10mcp_server10components19get_component_tools
FNDA:0,_RNvNtCsfVGYiQvi1X6_10mcp_server10components21handle_component_call
FNDA:0,_RNvNtCsfVGYiQvi1X6_10mcp_server10components21handle_load_component
FNDA:0,_RNvNtCsfVGYiQvi1X6_10mcp_server10components22handle_list_components
FNDA:0,_RNvNtCsfVGYiQvi1X6_10mcp_server10components23handle_unload_component
FNDA:1,_RNvNtCsfVGYiQvi1X6_10mcp_server10components17parse_tool_schema
FNDA:13,_RNvNtCsfVGYiQvi1X6_10mcp_server10components25extract_args_from_request
FNDA:1,_RNCNvNtCsfVGYiQvi1X6_10mcp_server10components17parse_tool_schema0B5_
FNDA:1,_RNCNvNtCsfVGYiQvi1X6_10mcp_server10components17parse_tool_schemas_0B5_
FNDA:1,_RNvNtNtCsfVGYiQvi1X6_10mcp_server10components5testss_22test_parse_tool_schema
FNDA:0,_RNCNvNtCs3lZzujog2fP_10mcp_server10components17parse_tool_schema0B5_
FNDA:0,_RNCNvNtCs3lZzujog2fP_10mcp_server10components17parse_tool_schemas_0B5_
FNDA:0,_RNvNtCs3lZzujog2fP_10mcp_server10components17parse_tool_schema
FNDA:0,_RNvNtCs3lZzujog2fP_10mcp_server10components19get_component_tools
FNDA:0,_RNvNtCs3lZzujog2fP_10mcp_server10components21handle_component_call
FNDA:0,_RNvNtCs3lZzujog2fP_10mcp_server10components21handle_load_component
FNDA:0,_RNvNtCs3lZzujog2fP_10mcp_server10components22handle_list_components
FNDA:0,_RNvNtCs3lZzujog2fP_10mcp_server10components23handle_unload_component
FNDA:0,_RNvNtCs3lZzujog2fP_10mcp_server10components25extract_args_from_request
FNDA:0,_RNCNCNCNCNCNvNtCs3lZzujog2fP_10mcp_server10components22handle_list_components00000Bd_
FNDA:0,_RNCNCNCNCNCNvNtCs3lZzujog2fP_10mcp_server10components22handle_list_components0000s_0Bd_
FNDA:0,_RNCNCNCNCNvNtCs3lZzujog2fP_10mcp_server10components22handle_list_components0000Bb_
FNDA:0,_RNCNCNCNvNtCs3lZzujog2fP_10mcp_server10components19get_component_tools000B9_
FNDA:0,_RNCNCNCNvNtCs3lZzujog2fP_10mcp_server10components21handle_component_call000B9_
FNDA:0,_RNCNCNCNvNtCs3lZzujog2fP_10mcp_server10components21handle_load_component000B9_
FNDA:0,_RNCNCNCNvNtCs3lZzujog2fP_10mcp_server10components21handle_load_component00s_0B9_
FNDA:0,_RNCNCNCNvNtCs3lZzujog2fP_10mcp_server10components22handle_list_components000B9_
FNDA:0,_RNCNCNCNvNtCs3lZzujog2fP_10mcp_server10components23handle_unload_component000B9_
FNDA:0,_RNCNCNCNvNtCs3lZzujog2fP_10mcp_server10components23handle_unload_component00s_0B9_
FNDA:0,_RNCNvNtCs3lZzujog2fP_10mcp_server10components19get_component_tools0B5_
FNDA:0,_RNCNvNtCs3lZzujog2fP_10mcp_server10components21handle_component_call0B5_
FNDA:0,_RNCNvNtCs3lZzujog2fP_10mcp_server10components21handle_load_component0B5_
FNDA:0,_RNCNvNtCs3lZzujog2fP_10mcp_server10components22handle_list_components0B5_
FNDA:0,_RNCNvNtCs3lZzujog2fP_10mcp_server10components23handle_unload_component0B5_
FNF:25
FNH:5
DA:16,0
DA:26,0
DA:39,0
DA:42,0
DA:43,0
DA:44,0
DA:45,0
DA:46,0
DA:50,0
DA:51,0
DA:94,0
DA:97,0
DA:98,0
DA:99,0
DA:100,0
DA:101,0
DA:106,0
DA:107,0
DA:150,0
DA:153,0
DA:154,0
DA:155,0
DA:156,0
DA:165,0
DA:166,0
DA:167,0
DA:188,0
DA:191,0
DA:192,0
DA:193,0
DA:199,0
DA:200,0
DA:201,0
DA:202,0
DA:203,0
DA:204,0
DA:205,0
DA:206,0
DA:208,0
DA:209,0
DA:210,0
DA:211,0
DA:214,0
DA:215,0
DA:216,0
DA:217,0
DA:220,0
DA:236,0
DA:238,13
DA:239,13
DA:240,13
DA:241,13
DA:243,13
DA:244,13
DA:245,0
DA:246,0
DA:247,0
DA:249,13
DA:252,1
DA:253,1
DA:254,1
DA:255,1
DA:256,1
DA:258,1
DA:259,1
DA:260,1
DA:261,1
DA:263,1
DA:265,1
DA:267,1
DA:268,1
DA:269,1
DA:270,1
DA:271,1
DA:272,1
DA:273,1
DA:280,1
DA:281,1
DA:282,1
DA:283,1
DA:284,1
DA:285,1
DA:286,1
DA:287,1
DA:292,1
DA:294,1
DA:295,1
DA:297,1
DA:298,1
DA:299,1
DA:300,1
DA:301,1
DA:304,1
DA:305,1
BRF:0
BRH:0
LF:104
LH:45
end_of_record
SF:/home/runner/work/wassette/wassette/crates/mcp-server/src/prompts.rs
FN:7,_RNCNvNtCsfVGYiQvi1X6_10mcp_server7prompts19handle_prompts_list0B5_
FN:7,_RNvNtCsfVGYiQvi1X6_10mcp_server7prompts19handle_prompts_list
FN:7,_RNCNvNtCs3lZzujog2fP_10mcp_server7prompts19handle_prompts_list0B5_
FNDA:0,_RNCNvNtCsfVGYiQvi1X6_10mcp_server7prompts19handle_prompts_list0B5_
FNDA:0,_RNvNtCsfVGYiQvi1X6_10mcp_server7prompts19handle_prompts_list
FNDA:0,_RNCNvNtCs3lZzujog2fP_10mcp_server7prompts19handle_prompts_list0B5_
FNF:2
FNH:0
DA:7,0
DA:8,0
DA:9,0
DA:10,0
DA:11,0
DA:12,0
DA:13,0
DA:14,0
BRF:0
BRH:0
LF:9
LH:0
end_of_record
SF:/home/runner/work/wassette/wassette/crates/mcp-server/src/resources.rs
FN:7,_RNCNvNtCsfVGYiQvi1X6_10mcp_server9resources21handle_resources_list0B5_
FN:7,_RNvNtCsfVGYiQvi1X6_10mcp_server9resources21handle_resources_list
FN:7,_RNCNvNtCs3lZzujog2fP_10mcp_server9resources21handle_resources_list0B5_
FNDA:0,_RNCNvNtCsfVGYiQvi1X6_10mcp_server9resources21handle_resources_list0B5_
FNDA:0,_RNvNtCsfVGYiQvi1X6_10mcp_server9resources21handle_resources_list
FNDA:0,_RNCNvNtCs3lZzujog2fP_10mcp_server9resources21handle_resources_list0B5_
FNF:2
FNH:0
DA:7,0
DA:8,0
DA:9,0
DA:10,0
DA:11,0
DA:12,0
DA:13,0
DA:14,0
BRF:0
BRH:0
LF:9
LH:0
end_of_record
SF:/home/runner/work/wassette/wassette/crates/mcp-server/src/tools.rs
FN:389,_RNCNCNCNvNtCsfVGYiQvi1X6_10mcp_server5tools17handle_get_policy000B9_
FN:390,_RNCNCNCNvNtCsfVGYiQvi1X6_10mcp_server5tools17handle_get_policy00s_0B9_
FN:530,_RNCNCNCNvNtCsfVGYiQvi1X6_10mcp_server5tools44handle_grant_environment_variable_permission000B9_
FN:535,_RNCNCNCNvNtCsfVGYiQvi1X6_10mcp_server5tools44handle_grant_environment_variable_permission00s0_0B9_
FN:531,_RNCNCNCNvNtCsfVGYiQvi1X6_10mcp_server5tools44handle_grant_environment_variable_permission00s_0B9_
FN:384,_RNCNvNtCsfVGYiQvi1X6_10mcp_server5tools17handle_get_policy0B5_
FN:42,_RNCNvNtCsfVGYiQvi1X6_10mcp_server5tools17handle_tools_call0B5_
FN:21,_RNCNvNtCsfVGYiQvi1X6_10mcp_server5tools17handle_tools_list0B5_
FN:525,_RNCNvNtCsfVGYiQvi1X6_10mcp_server5tools44handle_grant_environment_variable_permission0B5_
FN:381,_RNvNtCsfVGYiQvi1X6_10mcp_server5tools17handle_get_policy
FN:38,_RNvNtCsfVGYiQvi1X6_10mcp_server5tools17handle_tools_call
FN:21,_RNvNtCsfVGYiQvi1X6_10mcp_server5tools17handle_tools_list
FN:522,_RNvNtCsfVGYiQvi1X6_10mcp_server5tools44handle_grant_environment_variable_permission
FN:743,_RNCNCNCNvNtCsfVGYiQvi1X6_10mcp_server5tools23handle_reset_permission000B9_
FN:744,_RNCNCNCNvNtCsfVGYiQvi1X6_10mcp_server5tools23handle_reset_permission00s_0B9_
FN:481,_RNCNCNCNvNtCsfVGYiQvi1X6_10mcp_server5tools31handle_grant_network_permission000B9_
FN:486,_RNCNCNCNvNtCsfVGYiQvi1X6_10mcp_server5tools31handle_grant_network_permission00s0_0B9_
FN:482,_RNCNCNCNvNtCsfVGYiQvi1X6_10mcp_server5tools31handle_grant_network_permission00s_0B9_
FN:432,_RNCNCNCNvNtCsfVGYiQvi1X6_10mcp_server5tools31handle_grant_storage_permission000B9_
FN:437,_RNCNCNCNvNtCsfVGYiQvi1X6_10mcp_server5tools31handle_grant_storage_permission00s0_0B9_
FN:433,_RNCNCNCNvNtCsfVGYiQvi1X6_10mcp_server5tools31handle_grant_storage_permission00s_0B9_
FN:639,_RNCNCNCNvNtCsfVGYiQvi1X6_10mcp_server5tools32handle_revoke_network_permission000B9_
FN:644,_RNCNCNCNvNtCsfVGYiQvi1X6_10mcp_server5tools32handle_revoke_network_permission00s0_0B9_
FN:640,_RNCNCNCNvNtCsfVGYiQvi1X6_10mcp_server5tools32handle_revoke_network_permission00s_0B9_
FN:582,_RNCNCNCNvNtCsfVGYiQvi1X6_10mcp_server5tools32handle_revoke_storage_permission000B9_
FN:587,_RNCNCNCNvNtCsfVGYiQvi1X6_10mcp_server5tools32handle_revoke_storage_permission00s0_0B9_
FN:591,_RNCNCNCNvNtCsfVGYiQvi1X6_10mcp_server5tools32handle_revoke_storage_permission00s1_0B9_
FN:592,_RNCNCNCNvNtCsfVGYiQvi1X6_10mcp_server5tools32handle_revoke_storage_permission00s2_0B9_
FN:583,_RNCNCNCNvNtCsfVGYiQvi1X6_10mcp_server5tools32handle_revoke_storage_permission00s_0B9_
FN:691,_RNCNCNCNvNtCsfVGYiQvi1X6_10mcp_server5tools45handle_revoke_environment_variable_permission000B9_
FN:696,_RNCNCNCNvNtCsfVGYiQvi1X6_10mcp_server5tools45handle_revoke_environment_variable_permission00s0_0B9_
FN:692,_RNCNCNCNvNtCsfVGYiQvi1X6_10mcp_server5tools45handle_revoke_environment_variable_permission00s_0B9_
FN:738,_RNCNvNtCsfVGYiQvi1X6_10mcp_server5tools23handle_reset_permission0B5_
FN:476,_RNCNvNtCsfVGYiQvi1X6_10mcp_server5tools31handle_grant_network_permission0B5_
FN:427,_RNCNvNtCsfVGYiQvi1X6_10mcp_server5tools31handle_grant_storage_permission0B5_
FN:634,_RNCNvNtCsfVGYiQvi1X6_10mcp_server5tools32handle_revoke_network_permission0B5_
FN:577,_RNCNvNtCsfVGYiQvi1X6_10mcp_server5tools32handle_revoke_storage_permission0B5_
FN:686,_RNCNvNtCsfVGYiQvi1X6_10mcp_server5tools45handle_revoke_environment_variable_permission0B5_
FN:783,_RNCNvNtNtCsfVGYiQvi1X6_10mcp_server5tools5testss_22test_get_builtin_tools0B7_
FN:785,_RNCNvNtNtCsfVGYiQvi1X6_10mcp_server5tools5testss_22test_get_builtin_toolss0_0B7_
FN:786,_RNCNvNtNtCsfVGYiQvi1X6_10mcp_server5tools5testss_22test_get_builtin_toolss1_0B7_
FN:787,_RNCNvNtNtCsfVGYiQvi1X6_10mcp_server5tools5testss_22test_get_builtin_toolss2_0B7_
FN:788,_RNCNvNtNtCsfVGYiQvi1X6_10mcp_server5tools5testss_22test_get_builtin_toolss3_0B7_
FN:791,_RNCNvNtNtCsfVGYiQvi1X6_10mcp_server5tools5testss_22test_get_builtin_toolss4_0B7_
FN:792,_RNCNvNtNtCsfVGYiQvi1X6_10mcp_server5tools5testss_22test_get_builtin_toolss5_0B7_
FN:793,_RNCNvNtNtCsfVGYiQvi1X6_10mcp_server5tools5testss_22test_get_builtin_toolss6_0B7_
FN:796,_RNCNvNtNtCsfVGYiQvi1X6_10mcp_server5tools5testss_22test_get_builtin_toolss7_0B7_
FN:797,_RNCNvNtNtCsfVGYiQvi1X6_10mcp_server5tools5testss_22test_get_builtin_toolss8_0B7_
FN:784,_RNCNvNtNtCsfVGYiQvi1X6_10mcp_server5tools5testss_22test_get_builtin_toolss_0B7_
FN:939,_RNCNvNtNtCsfVGYiQvi1X6_10mcp_server5tools5testss_30test_revoke_permission_network0B7_
FN:1026,_RNCNvNtNtCsfVGYiQvi1X6_10mcp_server5tools5testss_33test_reset_permission_integration0B7_
FN:862,_RNCNvNtNtCsfVGYiQvi1X6_10mcp_server5tools5testss_39test_grant_permission_missing_arguments0B7_
FN:1053,_RNCNvNtNtCsfVGYiQvi1X6_10mcp_server5tools5testss_40test_revoke_permission_missing_arguments0B7_
FN:801,_RNCNvNtNtCsfVGYiQvi1X6_10mcp_server5tools5testss_41test_grant_network_permission_integration0B7_
FN:830,_RNCNvNtNtCsfVGYiQvi1X6_10mcp_server5tools5testss_41test_grant_storage_permission_integration0B7_
FN:967,_RNCNvNtNtCsfVGYiQvi1X6_10mcp_server5tools5testss_42test_revoke_storage_permission_integration0B7_
FN:998,_RNCNvNtNtCsfVGYiQvi1X6_10mcp_server5tools5testss_55test_revoke_environment_variable_permission_integration0B7_
FN:91,_RNvNtCsfVGYiQvi1X6_10mcp_server5tools17get_builtin_tools
FN:735,_RNvNtCsfVGYiQvi1X6_10mcp_server5tools23handle_reset_permission
FN:473,_RNvNtCsfVGYiQvi1X6_10mcp_server5tools31handle_grant_network_permission
FN:424,_RNvNtCsfVGYiQvi1X6_10mcp_server5tools31handle_grant_storage_permission
FN:631,_RNvNtCsfVGYiQvi1X6_10mcp_server5tools32handle_revoke_network_permission
FN:574,_RNvNtCsfVGYiQvi1X6_10mcp_server5tools32handle_revoke_storage_permission
FN:683,_RNvNtCsfVGYiQvi1X6_10mcp_server5tools45handle_revoke_environment_variable_permission
FN:780,_RNvNtNtCsfVGYiQvi1X6_10mcp_server5tools5testss_22test_get_builtin_tools
FN:939,_RNvNtNtCsfVGYiQvi1X6_10mcp_server5tools5testss_30test_revoke_permission_network
FN:1026,_RNvNtNtCsfVGYiQvi1X6_10mcp_server5tools5testss_33test_reset_permission_integration
FN:862,_RNvNtNtCsfVGYiQvi1X6_10mcp_server5tools5testss_39test_grant_permission_missing_arguments
FN:1053,_RNvNtNtCsfVGYiQvi1X6_10mcp_server5tools5testss_40test_revoke_permission_missing_arguments
FN:801,_RNvNtNtCsfVGYiQvi1X6_10mcp_server5tools5testss_41test_grant_network_permission_integration
FN:830,_RNvNtNtCsfVGYiQvi1X6_10mcp_server5tools5testss_41test_grant_storage_permission_integration
FN:967,_RNvNtNtCsfVGYiQvi1X6_10mcp_server5tools5testss_42test_revoke_storage_permission_integration
FN:998,_RNvNtNtCsfVGYiQvi1X6_10mcp_server5tools5testss_55test_revoke_environment_variable_permission_integration
FN:389,_RNCNCNCNvNtCs3lZzujog2fP_10mcp_server5tools17handle_get_policy000B9_
FN:390,_RNCNCNCNvNtCs3lZzujog2fP_10mcp_server5tools17handle_get_policy00s_0B9_
FN:743,_RNCNCNCNvNtCs3lZzujog2fP_10mcp_server5tools23handle_reset_permission000B9_
FN:744,_RNCNCNCNvNtCs3lZzujog2fP_10mcp_server5tools23handle_reset_permission00s_0B9_
FN:481,_RNCNCNCNvNtCs3lZzujog2fP_10mcp_server5tools31handle_grant_network_permission000B9_
FN:486,_RNCNCNCNvNtCs3lZzujog2fP_10mcp_server5tools31handle_grant_network_permission00s0_0B9_
FN:482,_RNCNCNCNvNtCs3lZzujog2fP_10mcp_server5tools31handle_grant_network_permission00s_0B9_
FN:432,_RNCNCNCNvNtCs3lZzujog2fP_10mcp_server5tools31handle_grant_storage_permission000B9_
FN:437,_RNCNCNCNvNtCs3lZzujog2fP_10mcp_server5tools31handle_grant_storage_permission00s0_0B9_
FN:433,_RNCNCNCNvNtCs3lZzujog2fP_10mcp_server5tools31handle_grant_storage_permission00s_0B9_
FN:639,_RNCNCNCNvNtCs3lZzujog2fP_10mcp_server5tools32handle_revoke_network_permission000B9_
FN:644,_RNCNCNCNvNtCs3lZzujog2fP_10mcp_server5tools32handle_revoke_network_permission00s0_0B9_
FN:640,_RNCNCNCNvNtCs3lZzujog2fP_10mcp_server5tools32handle_revoke_network_permission00s_0B9_
FN:582,_RNCNCNCNvNtCs3lZzujog2fP_10mcp_server5tools32handle_revoke_storage_permission000B9_
FN:587,_RNCNCNCNvNtCs3lZzujog2fP_10mcp_server5tools32handle_revoke_storage_permission00s0_0B9_
FN:591,_RNCNCNCNvNtCs3lZzujog2fP_10mcp_server5tools32handle_revoke_storage_permission00s1_0B9_
FN:592,_RNCNCNCNvNtCs3lZzujog2fP_10mcp_server5tools32handle_revoke_storage_permission00s2_0B9_
FN:583,_RNCNCNCNvNtCs3lZzujog2fP_10mcp_server5tools32handle_revoke_storage_permission00s_0B9_
FN:530,_RNCNCNCNvNtCs3lZzujog2fP_10mcp_server5tools44handle_grant_environment_variable_permission000B9_
FN:535,_RNCNCNCNvNtCs3lZzujog2fP_10mcp_server5tools44handle_grant_environment_variable_permission00s0_0B9_
FN:531,_RNCNCNCNvNtCs3lZzujog2fP_10mcp_server5tools44handle_grant_environment_variable_permission00s_0B9_
FN:691,_RNCNCNCNvNtCs3lZzujog2fP_10mcp_server5tools45handle_revoke_environment_variable_permission000B9_
FN:696,_RNCNCNCNvNtCs3lZzujog2fP_10mcp_server5tools45handle_revoke_environment_variable_permission00s0_0B9_
FN:692,_RNCNCNCNvNtCs3lZzujog2fP_10mcp_server5tools45handle_revoke_environment_variable_permission00s_0B9_
FN:384,_RNCNvNtCs3lZzujog2fP_10mcp_server5tools17handle_get_policy0B5_
FN:42,_RNCNvNtCs3lZzujog2fP_10mcp_server5tools17handle_tools_call0B5_
FN:21,_RNCNvNtCs3lZzujog2fP_10mcp_server5tools17handle_tools_list0B5_
FN:738,_RNCNvNtCs3lZzujog2fP_10mcp_server5tools23handle_reset_permission0B5_
FN:476,_RNCNvNtCs3lZzujog2fP_10mcp_server5tools31handle_grant_network_permission0B5_
FN:427,_RNCNvNtCs3lZzujog2fP_10mcp_server5tools31handle_grant_storage_permission0B5_
FN:634,_RNCNvNtCs3lZzujog2fP_10mcp_server5tools32handle_revoke_network_permission0B5_
FN:577,_RNCNvNtCs3lZzujog2fP_10mcp_server5tools32handle_revoke_storage_permission0B5_
FN:525,_RNCNvNtCs3lZzujog2fP_10mcp_server5tools44handle_grant_environment_variable_permission0B5_
FN:686,_RNCNvNtCs3lZzujog2fP_10mcp_server5tools45handle_revoke_environment_variable_permission0B5_
FNDA:0,_RNCNCNCNvNtCsfVGYiQvi1X6_10mcp_server5tools17handle_get_policy000B9_
FNDA:0,_RNCNCNCNvNtCsfVGYiQvi1X6_10mcp_server5tools17handle_get_policy00s_0B9_
FNDA:0,_RNCNCNCNvNtCsfVGYiQvi1X6_10mcp_server5tools44handle_grant_environment_variable_permission000B9_
FNDA:0,_RNCNCNCNvNtCsfVGYiQvi1X6_10mcp_server5tools44handle_grant_environment_variable_permission00s0_0B9_
FNDA:0,_RNCNCNCNvNtCsfVGYiQvi1X6_10mcp_server5tools44handle_grant_environment_variable_permission00s_0B9_
FNDA:0,_RNCNvNtCsfVGYiQvi1X6_10mcp_server5tools17handle_get_policy0B5_
FNDA:0,_RNCNvNtCsfVGYiQvi1X6_10mcp_server5tools17handle_tools_call0B5_
FNDA:0,_RNCNvNtCsfVGYiQvi1X6_10mcp_server5tools17handle_tools_list0B5_
FNDA:0,_RNCNvNtCsfVGYiQvi1X6_10mcp_server5tools44handle_grant_environment_variable_permission0B5_
FNDA:0,_RNvNtCsfVGYiQvi1X6_10mcp_server5tools17handle_get_policy
FNDA:0,_RNvNtCsfVGYiQvi1X6_10mcp_server5tools17handle_tools_call
FNDA:0,_RNvNtCsfVGYiQvi1X6_10mcp_server5tools17handle_tools_list
FNDA:0,_RNvNtCsfVGYiQvi1X6_10mcp_server5tools44handle_grant_environment_variable_permission
FNDA:1,_RNCNCNCNvNtCsfVGYiQvi1X6_10mcp_server5tools23handle_reset_permission000B9_
FNDA:1,_RNCNCNCNvNtCsfVGYiQvi1X6_10mcp_server5tools23handle_reset_permission00s_0B9_
FNDA:2,_RNCNCNCNvNtCsfVGYiQvi1X6_10mcp_server5tools31handle_grant_network_permission000B9_
FNDA:1,_RNCNCNCNvNtCsfVGYiQvi1X6_10mcp_server5tools31handle_grant_network_permission00s0_0B9_
FNDA:1,_RNCNCNCNvNtCsfVGYiQvi1X6_10mcp_server5tools31handle_grant_network_permission00s_0B9_
FNDA:2,_RNCNCNCNvNtCsfVGYiQvi1X6_10mcp_server5tools31handle_grant_storage_permission000B9_
FNDA:1,_RNCNCNCNvNtCsfVGYiQvi1X6_10mcp_server5tools31handle_grant_storage_permission00s0_0B9_
FNDA:1,_RNCNCNCNvNtCsfVGYiQvi1X6_10mcp_server5tools31handle_grant_storage_permission00s_0B9_
FNDA:2,_RNCNCNCNvNtCsfVGYiQvi1X6_10mcp_server5tools32handle_revoke_network_permission000B9_
FNDA:1,_RNCNCNCNvNtCsfVGYiQvi1X6_10mcp_server5tools32handle_revoke_network_permission00s0_0B9_
FNDA:1,_RNCNCNCNvNtCsfVGYiQvi1X6_10mcp_server5tools32handle_revoke_network_permission00s_0B9_
FNDA:1,_RNCNCNCNvNtCsfVGYiQvi1X6_10mcp_server5tools32handle_revoke_storage_permission000B9_
FNDA:0,_RNCNCNCNvNtCsfVGYiQvi1X6_10mcp_server5tools32handle_revoke_storage_permission00s0_0B9_
FNDA:1,_RNCNCNCNvNtCsfVGYiQvi1X6_10mcp_server5tools32handle_revoke_storage_permission00s1_0B9_
FNDA:0,_RNCNCNCNvNtCsfVGYiQvi1X6_10mcp_server5tools32handle_revoke_storage_permission00s2_0B9_
FNDA:0,_RNCNCNCNvNtCsfVGYiQvi1X6_10mcp_server5tools32handle_revoke_storage_permission00s_0B9_
FNDA:1,_RNCNCNCNvNtCsfVGYiQvi1X6_10mcp_server5tools45handle_revoke_environment_variable_permission000B9_
FNDA:0,_RNCNCNCNvNtCsfVGYiQvi1X6_10mcp_server5tools45handle_revoke_environment_variable_permission00s0_0B9_
FNDA:0,_RNCNCNCNvNtCsfVGYiQvi1X6_10mcp_server5tools45handle_revoke_environment_variable_permission00s_0B9_
FNDA:2,_RNCNvNtCsfVGYiQvi1X6_10mcp_server5tools23handle_reset_permission0B5_
FNDA:3,_RNCNvNtCsfVGYiQvi1X6_10mcp_server5tools31handle_grant_network_permission0B5_
FNDA:3,_RNCNvNtCsfVGYiQvi1X6_10mcp_server5tools31handle_grant_storage_permission0B5_
FNDA:3,_RNCNvNtCsfVGYiQvi1X6_10mcp_server5tools32handle_revoke_network_permission0B5_
FNDA:1,_RNCNvNtCsfVGYiQvi1X6_10mcp_server5tools32handle_revoke_storage_permission0B5_
FNDA:1,_RNCNvNtCsfVGYiQvi1X6_10mcp_server5tools45handle_revoke_environment_variable_permission0B5_
FNDA:1,_RNCNvNtNtCsfVGYiQvi1X6_10mcp_server5tools5testss_22test_get_builtin_tools0B7_
FNDA:3,_RNCNvNtNtCsfVGYiQvi1X6_10mcp_server5tools5testss_22test_get_builtin_toolss0_0B7_
FNDA:4,_RNCNvNtNtCsfVGYiQvi1X6_10mcp_server5tools5testss_22test_get_builtin_toolss1_0B7_
FNDA:5,_RNCNvNtNtCsfVGYiQvi1X6_10mcp_server5tools5testss_22test_get_builtin_toolss2_0B7_
FNDA:6,_RNCNvNtNtCsfVGYiQvi1X6_10mcp_server5tools5testss_22test_get_builtin_toolss3_0B7_
FNDA:7,_RNCNvNtNtCsfVGYiQvi1X6_10mcp_server5tools5testss_22test_get_builtin_toolss4_0B7_
FNDA:8,_RNCNvNtNtCsfVGYiQvi1X6_10mcp_server5tools5testss_22test_get_builtin_toolss5_0B7_
FNDA:9,_RNCNvNtNtCsfVGYiQvi1X6_10mcp_server5tools5testss_22test_get_builtin_toolss6_0B7_
FNDA:10,_RNCNvNtNtCsfVGYiQvi1X6_10mcp_server5tools5testss_22test_get_builtin_toolss7_0B7_
FNDA:11,_RNCNvNtNtCsfVGYiQvi1X6_10mcp_server5tools5testss_22test_get_builtin_toolss8_0B7_
FNDA:2,_RNCNvNtNtCsfVGYiQvi1X6_10mcp_server5tools5testss_22test_get_builtin_toolss_0B7_
FNDA:1,_RNCNvNtNtCsfVGYiQvi1X6_10mcp_server5tools5testss_30test_revoke_permission_network0B7_
FNDA:1,_RNCNvNtNtCsfVGYiQvi1X6_10mcp_server5tools5testss_33test_reset_permission_integration0B7_
FNDA:1,_RNCNvNtNtCsfVGYiQvi1X6_10mcp_server5tools5testss_39test_grant_permission_missing_arguments0B7_
FNDA:1,_RNCNvNtNtCsfVGYiQvi1X6_10mcp_server5tools5testss_40test_revoke_permission_missing_arguments0B7_
FNDA:1,_RNCNvNtNtCsfVGYiQvi1X6_10mcp_server5tools5testss_41test_grant_network_permission_integration0B7_
FNDA:1,_RNCNvNtNtCsfVGYiQvi1X6_10mcp_server5tools5testss_41test_grant_storage_permission_integration0B7_
FNDA:1,_RNCNvNtNtCsfVGYiQvi1X6_10mcp_server5tools5testss_42test_revoke_storage_permission_integration0B7_
FNDA:1,_RNCNvNtNtCsfVGYiQvi1X6_10mcp_server5tools5testss_55test_revoke_environment_variable_permission_integration0B7_
FNDA:1,_RNvNtCsfVGYiQvi1X6_10mcp_server5tools17get_builtin_tools
FNDA:2,_RNvNtCsfVGYiQvi1X6_10mcp_server5tools23handle_reset_permission
FNDA:3,_RNvNtCsfVGYiQvi1X6_10mcp_server5tools31handle_grant_network_permission
FNDA:3,_RNvNtCsfVGYiQvi1X6_10mcp_server5tools31handle_grant_storage_permission
FNDA:3,_RNvNtCsfVGYiQvi1X6_10mcp_server5tools32handle_revoke_network_permission
FNDA:1,_RNvNtCsfVGYiQvi1X6_10mcp_server5tools32handle_revoke_storage_permission
FNDA:1,_RNvNtCsfVGYiQvi1X6_10mcp_server5tools45handle_revoke_environment_variable_permission
FNDA:1,_RNvNtNtCsfVGYiQvi1X6_10mcp_server5tools5testss_22test_get_builtin_tools
FNDA:1,_RNvNtNtCsfVGYiQvi1X6_10mcp_server5tools5testss_30test_revoke_permission_network
FNDA:1,_RNvNtNtCsfVGYiQvi1X6_10mcp_server5tools5testss_33test_reset_permission_integration
FNDA:1,_RNvNtNtCsfVGYiQvi1X6_10mcp_server5tools5testss_39test_grant_permission_missing_arguments
FNDA:1,_RNvNtNtCsfVGYiQvi1X6_10mcp_server5tools5testss_40test_revoke_permission_missing_arguments
FNDA:1,_RNvNtNtCsfVGYiQvi1X6_10mcp_server5tools5testss_41test_grant_network_permission_integration
FNDA:1,_RNvNtNtCsfVGYiQvi1X6_10mcp_server5tools5testss_41test_grant_storage_permission_integration
FNDA:1,_RNvNtNtCsfVGYiQvi1X6_10mcp_server5tools5testss_42test_revoke_storage_permission_integration
FNDA:1,_RNvNtNtCsfVGYiQvi1X6_10mcp_server5tools5testss_55test_revoke_environment_variable_permission_integration
FNDA:0,_RNCNCNCNvNtCs3lZzujog2fP_10mcp_server5tools17handle_get_policy000B9_
FNDA:0,_RNCNCNCNvNtCs3lZzujog2fP_10mcp_server5tools17handle_get_policy00s_0B9_
FNDA:0,_RNCNCNCNvNtCs3lZzujog2fP_10mcp_server5tools23handle_reset_permission000B9_
FNDA:0,_RNCNCNCNvNtCs3lZzujog2fP_10mcp_server5tools23handle_reset_permission00s_0B9_
FNDA:0,_RNCNCNCNvNtCs3lZzujog2fP_10mcp_server5tools31handle_grant_network_permission000B9_
FNDA:0,_RNCNCNCNvNtCs3lZzujog2fP_10mcp_server5tools31handle_grant_network_permission00s0_0B9_
FNDA:0,_RNCNCNCNvNtCs3lZzujog2fP_10mcp_server5tools31handle_grant_network_permission00s_0B9_
FNDA:0,_RNCNCNCNvNtCs3lZzujog2fP_10mcp_server5tools31handle_grant_storage_permission000B9_
FNDA:0,_RNCNCNCNvNtCs3lZzujog2fP_10mcp_server5tools31handle_grant_storage_permission00s0_0B9_
FNDA:0,_RNCNCNCNvNtCs3lZzujog2fP_10mcp_server5tools31handle_grant_storage_permission00s_0B9_
FNDA:0,_RNCNCNCNvNtCs3lZzujog2fP_10mcp_server5tools32handle_revoke_network_permission000B9_
FNDA:0,_RNCNCNCNvNtCs3lZzujog2fP_10mcp_server5tools32handle_revoke_network_permission00s0_0B9_
FNDA:0,_RNCNCNCNvNtCs3lZzujog2fP_10mcp_server5tools32handle_revoke_network_permission00s_0B9_
FNDA:0,_RNCNCNCNvNtCs3lZzujog2fP_10mcp_server5tools32handle_revoke_storage_permission000B9_
FNDA:0,_RNCNCNCNvNtCs3lZzujog2fP_10mcp_server5tools32handle_revoke_storage_permission00s0_0B9_
FNDA:0,_RNCNCNCNvNtCs3lZzujog2fP_10mcp_server5tools32handle_revoke_storage_permission00s1_0B9_
FNDA:0,_RNCNCNCNvNtCs3lZzujog2fP_10mcp_server5tools32handle_revoke_storage_permission00s2_0B9_
FNDA:0,_RNCNCNCNvNtCs3lZzujog2fP_10mcp_server5tools32handle_revoke_storage_permission00s_0B9_
FNDA:0,_RNCNCNCNvNtCs3lZzujog2fP_10mcp_server5tools44handle_grant_environment_variable_permission000B9_
FNDA:0,_RNCNCNCNvNtCs3lZzujog2fP_10mcp_server5tools44handle_grant_environment_variable_permission00s0_0B9_
FNDA:0,_RNCNCNCNvNtCs3lZzujog2fP_10mcp_server5tools44handle_grant_environment_variable_permission00s_0B9_
FNDA:0,_RNCNCNCNvNtCs3lZzujog2fP_10mcp_server5tools45handle_revoke_environment_variable_permission000B9_
FNDA:0,_RNCNCNCNvNtCs3lZzujog2fP_10mcp_server5tools45handle_revoke_environment_variable_permission00s0_0B9_
FNDA:0,_RNCNCNCNvNtCs3lZzujog2fP_10mcp_server5tools45handle_revoke_environment_variable_permission00s_0B9_
FNDA:0,_RNCNvNtCs3lZzujog2fP_10mcp_server5tools17handle_get_policy0B5_
FNDA:0,_RNCNvNtCs3lZzujog2fP_10mcp_server5tools17handle_tools_call0B5_
FNDA:0,_RNCNvNtCs3lZzujog2fP_10mcp_server5tools17handle_tools_list0B5_
FNDA:0,_RNCNvNtCs3lZzujog2fP_10mcp_server5tools23handle_reset_permission0B5_
FNDA:0,_RNCNvNtCs3lZzujog2fP_10mcp_server5tools31handle_grant_network_permission0B5_
FNDA:0,_RNCNvNtCs3lZzujog2fP_10mcp_server5tools31handle_grant_storage_permission0B5_
FNDA:0,_RNCNvNtCs3lZzujog2fP_10mcp_server5tools32handle_revoke_network_permission0B5_
FNDA:0,_RNCNvNtCs3lZzujog2fP_10mcp_server5tools32handle_revoke_storage_permission0B5_
FNDA:0,_RNCNvNtCs3lZzujog2fP_10mcp_server5tools44handle_grant_environment_variable_permission0B5_
FNDA:0,_RNCNvNtCs3lZzujog2fP_10mcp_server5tools45handle_revoke_environment_variable_permission0B5_
FNF:73
FNH:55
DA:21,0
DA:34,0
DA:38,0
DA:39,0
DA:40,0
DA:41,0
DA:42,0
DA:89,0
DA:91,1
DA:92,1
DA:93,1
DA:94,1
DA:95,1
DA:96,1
DA:97,1
DA:98,1
DA:99,1
DA:100,1
DA:101,1
DA:102,1
DA:103,1
DA:104,1
DA:105,1
DA:106,1
DA:107,1
DA:108,1
DA:109,1
DA:110,1
DA:111,1
DA:112,1
DA:113,1
DA:114,1
DA:115,1
DA:116,1
DA:117,1
DA:118,1
DA:119,1
DA:120,1
DA:121,1
DA:122,1
DA:123,1
DA:124,1
DA:125,1
DA:126,1
DA:127,1
DA:128,1
DA:129,1
DA:130,1
DA:131,1
DA:132,1
DA:133,1
DA:134,1
DA:135,1
DA:136,1
DA:137,1
DA:138,1
DA:139,1
DA:140,1
DA:141,1
DA:142,1
DA:143,1
DA:144,1
DA:145,1
DA:146,1
DA:147,1
DA:148,1
DA:149,1
DA:150,1
DA:151,1
DA:152,1
DA:153,1
DA:154,1
DA:155,1
DA:156,1
DA:157,1
DA:158,1
DA:159,1
DA:160,1
DA:161,1
DA:162,1
DA:163,1
DA:164,1
DA:165,1
DA:166,1
DA:167,1
DA:168,1
DA:169,1
DA:170,1
DA:171,1
DA:172,1
DA:173,1
DA:174,1
DA:175,1
DA:176,1
DA:177,1
DA:178,1
DA:179,1
DA:180,1
DA:181,1
DA:182,1
DA:183,1
DA:184,1
DA:185,1
DA:186,1
DA:187,1
DA:188,1
DA:189,1
DA:190,1
DA:191,1
DA:192,1
DA:193,1
DA:194,1
DA:195,1
DA:196,1
DA:197,1
DA:198,1
DA:199,1
DA:200,1
DA:201,1
DA:202,1
DA:203,1
DA:204,1
DA:205,1
DA:206,1
DA:207,1
DA:208,1
DA:209,1
DA:210,1
DA:211,1
DA:212,1
DA:213,1
DA:214,1
DA:215,1
DA:216,1
DA:217,1
DA:218,1
DA:219,1
DA:220,1
DA:221,1
DA:222,1
DA:223,1
DA:224,1
DA:225,1
DA:226,1
DA:227,1
DA:228,1
DA:229,1
DA:230,1
DA:231,1
DA:232,1
DA:233,1
DA:234,1
DA:235,1
DA:236,1
DA:237,1
DA:238,1
DA:239,1
DA:240,1
DA:241,1
DA:242,1
DA:243,1
DA:244,1
DA:245,1
DA:246,1
DA:247,1
DA:248,1
DA:249,1
DA:250,1
DA:251,1
DA:252,1
DA:253,1
DA:254,1
DA:255,1
DA:256,1
DA:257,1
DA:258,1
DA:259,1
DA:260,1
DA:261,1
DA:262,1
DA:263,1
DA:264,1
DA:265,1
DA:266,1
DA:267,1
DA:268,1
DA:269,1
DA:270,1
DA:271,1
DA:272,1
DA:273,1
DA:274,1
DA:275,1
DA:276,1
DA:277,1
DA:278,1
DA:279,1
DA:280,1
DA:281,1
DA:282,1
DA:283,1
DA:284,1
DA:285,1
DA:286,1
DA:287,1
DA:288,1
DA:289,1
DA:290,1
DA:291,1
DA:292,1
DA:293,1
DA:294,1
DA:295,1
DA:296,1
DA:297,1
DA:298,1
DA:299,1
DA:300,1
DA:301,1
DA:302,1
DA:303,1
DA:304,1
DA:305,1
DA:306,1
DA:307,1
DA:308,1
DA:309,1
DA:310,1
DA:311,1
DA:312,1
DA:313,1
DA:314,1
DA:315,1
DA:316,1
DA:317,1
DA:318,1
DA:319,1
DA:320,1
DA:321,1
DA:322,1
DA:323,1
DA:324,1
DA:325,1
DA:326,1
DA:327,1
DA:328,1
DA:329,1
DA:330,1
DA:331,1
DA:332,1
DA:333,1
DA:334,1
DA:335,1
DA:336,1
DA:337,1
DA:338,1
DA:339,1
DA:340,1
DA:341,1
DA:342,1
DA:343,1
DA:344,1
DA:345,1
DA:346,1
DA:347,1
DA:348,1
DA:349,1
DA:350,1
DA:351,1
DA:352,1
DA:353,1
DA:354,1
DA:355,1
DA:356,1
DA:357,1
DA:358,1
DA:359,1
DA:360,1
DA:361,1
DA:362,1
DA:363,1
DA:364,1
DA:365,1
DA:366,1
DA:367,1
DA:368,1
DA:369,1
DA:370,1
DA:371,1
DA:372,1
DA:373,1
DA:374,1
DA:375,1
DA:376,1
DA:378,1
DA:381,0
DA:382,0
DA:383,0
DA:384,0
DA:389,0
DA:390,0
DA:421,0
DA:424,3
DA:425,3
DA:426,3
DA:427,3
DA:432,2
DA:433,1
DA:437,1
DA:470,3
DA:473,3
DA:474,3
DA:475,3
DA:476,3
DA:481,2
DA:482,1
DA:486,1
DA:519,3
DA:522,0
DA:523,0
DA:524,0
DA:525,0
DA:530,0
DA:531,0
DA:535,0
DA:571,0
DA:574,1
DA:575,1
DA:576,1
DA:577,1
DA:582,1
DA:583,0
DA:587,0
DA:591,1
DA:592,0
DA:628,1
DA:631,3
DA:632,3
DA:633,3
DA:634,3
DA:639,2
DA:640,1
DA:644,1
DA:680,3
DA:683,1
DA:684,1
DA:685,1
DA:686,1
DA:691,1
DA:692,0
DA:696,0
DA:732,1
DA:735,2
DA:736,2
DA:737,2
DA:738,2
DA:743,1
DA:744,1
DA:773,2
DA:780,1
DA:781,1
DA:782,1
DA:783,1
DA:784,2
DA:785,3
DA:786,4
DA:787,5
DA:788,6
DA:789,1
DA:790,1
DA:791,7
DA:792,8
DA:793,9
DA:794,1
DA:795,1
DA:796,10
DA:797,11
DA:798,1
DA:801,1
DA:803,1
DA:804,1
DA:807,1
DA:808,1
DA:809,1
DA:811,1
DA:812,1
DA:813,1
DA:814,1
DA:817,1
DA:820,1
DA:821,1
DA:822,1
DA:823,1
DA:824,1
DA:826,2
DA:827,1
DA:830,1
DA:832,1
DA:833,1
DA:836,1
DA:837,1
DA:838,1
DA:839,1
DA:840,1
DA:843,1
DA:844,1
DA:845,1
DA:846,1
DA:849,1
DA:852,1
DA:853,1
DA:854,1
DA:855,1
DA:856,1
DA:858,2
DA:859,1
DA:862,1
DA:863,1
DA:864,1
DA:867,1
DA:868,1
DA:870,1
DA:871,1
DA:872,1
DA:873,1
DA:875,1
DA:876,1
DA:877,1
DA:878,1
DA:879,1
DA:880,1
DA:883,1
DA:884,1
DA:886,1
DA:887,1
DA:888,1
DA:889,1
DA:891,1
DA:892,1
DA:893,1
DA:894,1
DA:895,1
DA:896,1
DA:899,1
DA:900,1
DA:901,1
DA:902,1
DA:905,1
DA:906,1
DA:907,1
DA:908,1
DA:910,1
DA:911,1
DA:912,1
DA:913,1
DA:914,1
DA:915,1
DA:918,1
DA:919,1
DA:921,1
DA:922,1
DA:923,1
DA:924,1
DA:926,1
DA:927,1
DA:928,1
DA:929,1
DA:930,1
DA:931,1
DA:933,2
DA:934,1
DA:939,1
DA:940,1
DA:941,1
DA:944,1
DA:945,1
DA:946,1
DA:948,1
DA:949,1
DA:950,1
DA:951,1
DA:954,1
DA:957,1
DA:958,1
DA:959,1
DA:960,1
DA:961,1
DA:963,2
DA:964,1
DA:967,1
DA:968,1
DA:969,1
DA:972,1
DA:973,1
DA:974,1
DA:975,1
DA:976,1
DA:979,1
DA:980,1
DA:981,1
DA:982,1
DA:985,1
DA:988,1
DA:989,1
DA:990,1
DA:991,1
DA:992,1
DA:994,2
DA:995,1
DA:998,1
DA:999,1
DA:1000,1
DA:1003,1
DA:1004,1
DA:1005,1
DA:1007,1
DA:1008,1
DA:1009,1
DA:1010,1
DA:1013,1
DA:1016,1
DA:1017,1
DA:1018,1
DA:1019,1
DA:1020,1
DA:1022,2
DA:1023,1
DA:1026,1
DA:1027,1
DA:1028,1
DA:1031,1
DA:1032,1
DA:1034,1
DA:1035,1
DA:1036,1
DA:1037,1
DA:1040,1
DA:1043,1
DA:1044,1
DA:1045,1
DA:1046,1
DA:1047,1
DA:1049,2
DA:1050,1
DA:1053,1
DA:1054,1
DA:1055,1
DA:1058,1
DA:1059,1
DA:1061,1
DA:1062,1
DA:1063,1
DA:1064,1
DA:1066,1
DA:1067,1
DA:1068,1
DA:1069,1
DA:1070,1
DA:1071,1
DA:1074,1
DA:1075,1
DA:1077,1
DA:1078,1
DA:1079,1
DA:1080,1
DA:1082,1
DA:1083,1
DA:1084,1
DA:1085,1
DA:1086,1
DA:1087,1
DA:1090,1
DA:1092,1
DA:1093,1
DA:1094,1
DA:1095,1
DA:1097,1
DA:1098,1
DA:1099,1
DA:1100,1
DA:1101,1
DA:1102,1
DA:1104,2
DA:1105,1
BRF:0
BRH:0
LF:621
LH:589
end_of_record
SF:/home/runner/work/wassette/wassette/crates/policy/src/lib.rs
FN:33,_RNvMCs4Y0O4BHKvcK_6policyNtB2_14PolicyDocument8validate
FN:45,_RINvMCs9BW4kNCN3rI_6policyNtB3_14PolicyDocument3newNtNtCs8Ty2CzGA6U3_5alloc6string6StringEB3_
FN:45,_RINvMCs9BW4kNCN3rI_6policyNtB3_14PolicyDocument3newReEB3_
FN:33,_RNvMCs9BW4kNCN3rI_6policyNtB2_14PolicyDocument8validate
FN:84,_RNvNtCs9BW4kNCN3rI_6policy5testss_20test_invalid_version
FN:98,_RNvNtCs9BW4kNCN3rI_6policy5testss_22test_parse_docker_yaml
FN:61,_RNvNtCs9BW4kNCN3rI_6policy5testss_22test_policy_validation
FN:72,_RNvNtCs9BW4kNCN3rI_6policy5testss_27test_policy_new_constructor
FN:166,_RNvNtCs9BW4kNCN3rI_6policy5testss_27test_round_trip_docker_yaml
FNDA:15,_RNvMCs4Y0O4BHKvcK_6policyNtB2_14PolicyDocument8validate
FNDA:1,_RINvMCs9BW4kNCN3rI_6policyNtB3_14PolicyDocument3newNtNtCs8Ty2CzGA6U3_5alloc6string6StringEB3_
FNDA:1,_RINvMCs9BW4kNCN3rI_6policyNtB3_14PolicyDocument3newReEB3_
FNDA:76,_RNvMCs9BW4kNCN3rI_6policyNtB2_14PolicyDocument8validate
FNDA:1,_RNvNtCs9BW4kNCN3rI_6policy5testss_20test_invalid_version
FNDA:1,_RNvNtCs9BW4kNCN3rI_6policy5testss_22test_parse_docker_yaml
FNDA:1,_RNvNtCs9BW4kNCN3rI_6policy5testss_22test_policy_validation
FNDA:1,_RNvNtCs9BW4kNCN3rI_6policy5testss_27test_policy_new_constructor
FNDA:1,_RNvNtCs9BW4kNCN3rI_6policy5testss_27test_round_trip_docker_yaml
FNF:7
FNH:7
DA:33,91
DA:35,91
DA:36,2
DA:37,89
DA:38,89
DA:39,89
DA:40,89
DA:41,89
DA:42,91
DA:45,2
DA:46,2
DA:47,2
DA:48,2
DA:49,2
DA:50,2
DA:51,2
DA:61,1
DA:62,1
DA:63,1
DA:64,1
DA:65,1
DA:66,1
DA:68,1
DA:69,1
DA:72,1
DA:73,1
DA:74,1
DA:75,1
DA:76,1
DA:78,1
DA:79,1
DA:80,1
DA:81,1
DA:84,1
DA:85,1
DA:86,1
DA:87,1
DA:88,1
DA:89,1
DA:91,1
DA:92,1
DA:93,1
DA:94,1
DA:95,1
DA:98,1
DA:99,1
DA:100,1
DA:102,1
DA:103,1
DA:105,1
DA:108,1
DA:109,1
DA:110,1
DA:111,1
DA:112,1
DA:113,1
DA:114,1
DA:117,1
DA:118,1
DA:120,1
DA:121,1
DA:122,1
DA:124,1
DA:125,1
DA:126,0
DA:129,1
DA:130,1
DA:131,0
DA:134,1
DA:135,1
DA:136,0
DA:139,1
DA:140,1
DA:141,1
DA:142,1
DA:143,1
DA:145,1
DA:146,1
DA:147,1
DA:149,1
DA:150,1
DA:152,1
DA:153,1
DA:154,1
DA:156,1
DA:159,1
DA:160,1
DA:161,0
DA:163,1
DA:166,1
DA:167,1
DA:168,1
DA:169,1
DA:171,1
DA:172,1
BRF:0
BRH:0
LF:95
LH:91
end_of_record
SF:/home/runner/work/wassette/wassette/crates/policy/src/parser.rs
FN:34,_RINvMNtCs4Y0O4BHKvcK_6policy6parserNtB3_12PolicyParser9parse_strRNtNtCs8Ty2CzGA6U3_5alloc6string6StringECsfVGYiQvi1X6_10mcp_server
FN:50,_RINvMNtCs9BW4kNCN3rI_6policy6parserNtB3_12PolicyParser10parse_fileRNtNtCsiKSG5X70Gj7_3std4path4PathEB5_
FN:50,_RINvMNtCs9BW4kNCN3rI_6policy6parserNtB3_12PolicyParser10parse_fileRReEB5_
FN:50,_RINvMNtCs9BW4kNCN3rI_6policy6parserNtB3_12PolicyParser10parse_fileReEB5_
FN:102,_RINvMNtCs9BW4kNCN3rI_6policy6parserNtB3_12PolicyParser10write_fileRNtNtCsiKSG5X70Gj7_3std4path4PathEB5_
FN:34,_RINvMNtCs9BW4kNCN3rI_6policy6parserNtB3_12PolicyParser9parse_strRNtNtCs8Ty2CzGA6U3_5alloc6string6StringEB5_
FN:34,_RINvMNtCs9BW4kNCN3rI_6policy6parserNtB3_12PolicyParser9parse_strReEB5_
FN:65,_RNvMNtCs9BW4kNCN3rI_6policy6parserNtB2_12PolicyParser11parse_bytes
FN:86,_RNvMNtCs9BW4kNCN3rI_6policy6parserNtB2_12PolicyParser7to_yaml
FN:194,_RNvNtNtCs9BW4kNCN3rI_6policy6parser5testss_15test_parse_file
FN:221,_RNvNtNtCs9BW4kNCN3rI_6policy6parser5testss_15test_write_file
FN:237,_RNvNtNtCs9BW4kNCN3rI_6policy6parser5testss_16test_parse_bytes
FN:119,_RNvNtNtCs9BW4kNCN3rI_6policy6parser5testss_20test_parse_str_valid
FN:438,_RNvNtNtCs9BW4kNCN3rI_6policy6parser5testss_26test_parse_testdata_docker
FN:158,_RNvNtNtCs9BW4kNCN3rI_6policy6parser5testss_27test_parse_str_invalid_yaml
FN:257,_RNvNtNtCs9BW4kNCN3rI_6policy6parser5testss_27test_parse_testdata_minimal
FN:477,_RNvNtNtCs9BW4kNCN3rI_6policy6parser5testss_28test_round_trip_all_testdata
FN:503,_RNvNtNtCs9BW4kNCN3rI_6policy6parser5testss_28test_validation_all_testdata
FN:250,_RNvNtNtCs9BW4kNCN3rI_6policy6parser5testss_29test_parse_bytes_invalid_utf8
FN:170,_RNvNtNtCs9BW4kNCN3rI_6policy6parser5testss_29test_round_trip_serialization
FN:145,_RNvNtNtCs9BW4kNCN3rI_6policy6parser5testss_30test_parse_str_invalid_version
FN:368,_RNvNtNtCs9BW4kNCN3rI_6policy6parser5testss_30test_parse_testdata_restricted
FN:389,_RNvNtNtCs9BW4kNCN3rI_6policy6parser5testss_31test_parse_testdata_development
FN:411,_RNvNtNtCs9BW4kNCN3rI_6policy6parser5testss_31test_parse_testdata_web_service
FN:290,_RNvNtNtCs9BW4kNCN3rI_6policy6parser5testss_32test_parse_testdata_network_only
FN:268,_RNvNtNtCs9BW4kNCN3rI_6policy6parser5testss_32test_parse_testdata_storage_only
FN:325,_RNvNtNtCs9BW4kNCN3rI_6policy6parser5testss_33test_parse_testdata_comprehensive
FN:307,_RNvNtNtCs9BW4kNCN3rI_6policy6parser5testss_36test_parse_testdata_environment_only
FN:347,_RNvNtNtCs9BW4kNCN3rI_6policy6parser5testss_37test_parse_testdata_docker_privileged
FN:519,_RNCNvNtNtCs9BW4kNCN3rI_6policy6parser5testss_28test_validation_all_testdata0B7_
FN:428,_RNCNvNtNtCs9BW4kNCN3rI_6policy6parser5testss_31test_parse_testdata_web_service0B7_
FN:429,_RNCNvNtNtCs9BW4kNCN3rI_6policy6parser5testss_31test_parse_testdata_web_services_0B7_
FN:50,_RINvMNtCs4Y0O4BHKvcK_6policy6parserNtB3_12PolicyParser10parse_fileRNtNtCsiKSG5X70Gj7_3std4path4PathECs2TM9D3hGgt_8wassette
FN:34,_RINvMNtCs4Y0O4BHKvcK_6policy6parserNtB3_12PolicyParser9parse_strRNtNtCs8Ty2CzGA6U3_5alloc6string6StringECs2TM9D3hGgt_8wassette
FN:34,_RINvMNtCs4Y0O4BHKvcK_6policy6parserNtB3_12PolicyParser9parse_strReEB5_
FNDA:0,_RINvMNtCs4Y0O4BHKvcK_6policy6parserNtB3_12PolicyParser9parse_strRNtNtCs8Ty2CzGA6U3_5alloc6string6StringECsfVGYiQvi1X6_10mcp_server
FNDA:2,_RINvMNtCs9BW4kNCN3rI_6policy6parserNtB3_12PolicyParser10parse_fileRNtNtCsiKSG5X70Gj7_3std4path4PathEB5_
FNDA:20,_RINvMNtCs9BW4kNCN3rI_6policy6parserNtB3_12PolicyParser10parse_fileRReEB5_
FNDA:12,_RINvMNtCs9BW4kNCN3rI_6policy6parserNtB3_12PolicyParser10parse_fileReEB5_
FNDA:1,_RINvMNtCs9BW4kNCN3rI_6policy6parserNtB3_12PolicyParser10write_fileRNtNtCsiKSG5X70Gj7_3std4path4PathEB5_
FNDA:46,_RINvMNtCs9BW4kNCN3rI_6policy6parserNtB3_12PolicyParser9parse_strRNtNtCs8Ty2CzGA6U3_5alloc6string6StringEB5_
FNDA:4,_RINvMNtCs9BW4kNCN3rI_6policy6parserNtB3_12PolicyParser9parse_strReEB5_
FNDA:2,_RNvMNtCs9BW4kNCN3rI_6policy6parserNtB2_12PolicyParser11parse_bytes
FNDA:13,_RNvMNtCs9BW4kNCN3rI_6policy6parserNtB2_12PolicyParser7to_yaml
FNDA:1,_RNvNtNtCs9BW4kNCN3rI_6policy6parser5testss_15test_parse_file
FNDA:1,_RNvNtNtCs9BW4kNCN3rI_6policy6parser5testss_15test_write_file
FNDA:1,_RNvNtNtCs9BW4kNCN3rI_6policy6parser5testss_16test_parse_bytes
FNDA:1,_RNvNtNtCs9BW4kNCN3rI_6policy6parser5testss_20test_parse_str_valid
FNDA:1,_RNvNtNtCs9BW4kNCN3rI_6policy6parser5testss_26test_parse_testdata_docker
FNDA:1,_RNvNtNtCs9BW4kNCN3rI_6policy6parser5testss_27test_parse_str_invalid_yaml
FNDA:1,_RNvNtNtCs9BW4kNCN3rI_6policy6parser5testss_27test_parse_testdata_minimal
FNDA:1,_RNvNtNtCs9BW4kNCN3rI_6policy6parser5testss_28test_round_trip_all_testdata
FNDA:1,_RNvNtNtCs9BW4kNCN3rI_6policy6parser5testss_28test_validation_all_testdata
FNDA:1,_RNvNtNtCs9BW4kNCN3rI_6policy6parser5testss_29test_parse_bytes_invalid_utf8
FNDA:1,_RNvNtNtCs9BW4kNCN3rI_6policy6parser5testss_29test_round_trip_serialization
FNDA:1,_RNvNtNtCs9BW4kNCN3rI_6policy6parser5testss_30test_parse_str_invalid_version
FNDA:1,_RNvNtNtCs9BW4kNCN3rI_6policy6parser5testss_30test_parse_testdata_restricted
FNDA:1,_RNvNtNtCs9BW4kNCN3rI_6policy6parser5testss_31test_parse_testdata_development
FNDA:1,_RNvNtNtCs9BW4kNCN3rI_6policy6parser5testss_31test_parse_testdata_web_service
FNDA:1,_RNvNtNtCs9BW4kNCN3rI_6policy6parser5testss_32test_parse_testdata_network_only
FNDA:1,_RNvNtNtCs9BW4kNCN3rI_6policy6parser5testss_32test_parse_testdata_storage_only
FNDA:1,_RNvNtNtCs9BW4kNCN3rI_6policy6parser5testss_33test_parse_testdata_comprehensive
FNDA:1,_RNvNtNtCs9BW4kNCN3rI_6policy6parser5testss_36test_parse_testdata_environment_only
FNDA:1,_RNvNtNtCs9BW4kNCN3rI_6policy6parser5testss_37test_parse_testdata_docker_privileged
FNDA:0,_RNCNvNtNtCs9BW4kNCN3rI_6policy6parser5testss_28test_validation_all_testdata0B7_
FNDA:4,_RNCNvNtNtCs9BW4kNCN3rI_6policy6parser5testss_31test_parse_testdata_web_service0B7_
FNDA:7,_RNCNvNtNtCs9BW4kNCN3rI_6policy6parser5testss_31test_parse_testdata_web_services_0B7_
FNDA:0,_RINvMNtCs4Y0O4BHKvcK_6policy6parserNtB3_12PolicyParser10parse_fileRNtNtCsiKSG5X70Gj7_3std4path4PathECs2TM9D3hGgt_8wassette
FNDA:0,_RINvMNtCs4Y0O4BHKvcK_6policy6parserNtB3_12PolicyParser9parse_strRNtNtCs8Ty2CzGA6U3_5alloc6string6StringECs2TM9D3hGgt_8wassette
FNDA:15,_RINvMNtCs4Y0O4BHKvcK_6policy6parserNtB3_12PolicyParser9parse_strReEB5_
FNF:28
FNH:27
DA:34,65
DA:35,65
DA:36,64
DA:37,63
DA:38,65
DA:50,34
DA:51,34
DA:52,34
DA:53,34
DA:65,2
DA:66,2
DA:67,1
DA:68,2
DA:86,13
DA:87,13
DA:88,13
DA:89,13
DA:90,13
DA:102,1
DA:103,1
DA:104,1
DA:105,1
DA:106,1
DA:119,1
DA:120,1
DA:121,1
DA:122,1
DA:123,1
DA:124,1
DA:125,1
DA:126,1
DA:127,1
DA:128,1
DA:130,1
DA:131,1
DA:132,1
DA:134,1
DA:135,1
DA:136,1
DA:137,1
DA:138,1
DA:139,1
DA:140,1
DA:142,1
DA:145,1
DA:146,1
DA:147,1
DA:148,1
DA:149,1
DA:150,1
DA:152,1
DA:153,1
DA:154,1
DA:155,1
DA:158,1
DA:159,1
DA:160,1
DA:161,1
DA:162,1
DA:164,1
DA:165,1
DA:166,1
DA:167,1
DA:170,1
DA:171,1
DA:172,1
DA:173,1
DA:174,1
DA:175,1
DA:176,1
DA:177,1
DA:178,1
DA:179,1
DA:180,1
DA:181,1
DA:182,1
DA:183,1
DA:184,1
DA:185,1
DA:187,1
DA:188,1
DA:190,1
DA:191,1
DA:194,1
DA:195,1
DA:196,1
DA:197,1
DA:198,1
DA:199,1
DA:200,1
DA:201,1
DA:202,1
DA:203,1
DA:204,1
DA:206,1
DA:207,1
DA:209,1
DA:210,1
DA:211,1
DA:213,1
DA:214,1
DA:215,1
DA:216,1
DA:217,1
DA:218,1
DA:221,1
DA:222,1
DA:223,1
DA:224,1
DA:225,1
DA:226,1
DA:227,1
DA:229,1
DA:230,1
DA:232,1
DA:233,1
DA:234,1
DA:237,1
DA:238,1
DA:239,1
DA:240,1
DA:241,1
DA:242,1
DA:244,1
DA:245,1
DA:246,1
DA:247,1
DA:250,1
DA:251,1
DA:252,1
DA:253,1
DA:254,1
DA:257,1
DA:258,1
DA:259,1
DA:260,1
DA:261,1
DA:262,1
DA:263,1
DA:264,1
DA:265,1
DA:268,1
DA:269,1
DA:270,1
DA:271,1
DA:273,1
DA:276,1
DA:277,1
DA:278,1
DA:279,1
DA:280,1
DA:281,1
DA:283,1
DA:284,1
DA:285,1
DA:286,1
DA:287,1
DA:290,1
DA:291,1
DA:292,1
DA:293,1
DA:295,1
DA:298,1
DA:299,1
DA:300,1
DA:302,1
DA:303,1
DA:304,1
DA:307,1
DA:308,1
DA:309,1
DA:310,1
DA:312,1
DA:315,1
DA:316,1
DA:317,1
DA:318,1
DA:319,1
DA:320,1
DA:321,1
DA:322,1
DA:325,1
DA:326,1
DA:327,1
DA:328,1
DA:330,1
DA:333,1
DA:334,1
DA:335,1
DA:336,1
DA:337,1
DA:338,1
DA:340,1
DA:341,1
DA:342,1
DA:343,1
DA:344,1
DA:347,1
DA:348,1
DA:349,1
DA:350,1
DA:352,1
DA:355,1
DA:356,1
DA:357,1
DA:358,1
DA:359,1
DA:361,1
DA:362,1
DA:363,1
DA:364,1
DA:365,1
DA:368,1
DA:369,1
DA:370,1
DA:371,1
DA:373,1
DA:376,1
DA:377,1
DA:378,1
DA:379,1
DA:380,1
DA:382,1
DA:383,1
DA:384,1
DA:385,1
DA:386,1
DA:389,1
DA:390,1
DA:391,1
DA:392,1
DA:394,1
DA:397,1
DA:398,1
DA:399,1
DA:401,1
DA:402,1
DA:403,1
DA:405,1
DA:406,1
DA:407,1
DA:408,1
DA:411,1
DA:412,1
DA:413,1
DA:414,1
DA:416,1
DA:419,1
DA:420,1
DA:421,1
DA:422,1
DA:423,1
DA:425,1
DA:426,1
DA:427,1
DA:428,4
DA:429,7
DA:431,1
DA:432,1
DA:433,1
DA:434,1
DA:435,1
DA:438,1
DA:439,1
DA:440,1
DA:441,1
DA:443,1
DA:446,1
DA:447,1
DA:448,1
DA:449,1
DA:450,1
DA:452,1
DA:453,1
DA:454,1
DA:456,1
DA:457,1
DA:458,1
DA:459,1
DA:460,1
DA:462,1
DA:463,1
DA:464,1
DA:465,1
DA:466,1
DA:468,1
DA:469,1
DA:470,1
DA:472,1
DA:474,1
DA:477,1
DA:478,1
DA:479,1
DA:480,1
DA:481,1
DA:482,1
DA:483,1
DA:484,1
DA:485,1
DA:486,1
DA:487,1
DA:488,1
DA:489,1
DA:491,11
DA:492,10
DA:493,10
DA:494,10
DA:495,10
DA:497,0
DA:500,1
DA:503,1
DA:504,1
DA:505,1
DA:506,1
DA:507,1
DA:508,1
DA:509,1
DA:510,1
DA:511,1
DA:512,1
DA:513,1
DA:514,1
DA:515,1
DA:517,11
DA:518,10
DA:519,10
DA:520,0
DA:523,1
BRF:0
BRH:0
LF:331
LH:328
end_of_record
SF:/home/runner/work/wassette/wassette/crates/policy/src/types.rs
FN:153,_RNvXs_NtCs4Y0O4BHKvcK_6policy5typesINtB4_14PermissionListNtB4_17NetworkPermissionENtNtCs66KPHxksi63_4core7default7Default7defaultCsaa7tasbM8Sl_8wassette
FN:153,_RNvXs_NtCs4Y0O4BHKvcK_6policy5typesINtB4_14PermissionListNtB4_17StoragePermissionENtNtCs66KPHxksi63_4core7default7Default7defaultCsaa7tasbM8Sl_8wassette
FN:179,_RNvMs0_NtCs4Y0O4BHKvcK_6policy5typesNtB5_11Permissions20validate_storage_uri
FN:207,_RNvMs0_NtCs4Y0O4BHKvcK_6policy5typesNtB5_11Permissions21validate_network_host
FN:229,_RNvMs0_NtCs4Y0O4BHKvcK_6policy5typesNtB5_11Permissions24validate_environment_key
FN:243,_RNvMs0_NtCs4Y0O4BHKvcK_6policy5typesNtB5_11Permissions8validate
FN:81,_RNvXNtCs4Y0O4BHKvcK_6policy5typesNtB2_16CapabilityActionNtNtCs66KPHxksi63_4core3fmt7Display3fmt
FN:153,_RNvXININtCs9BW4kNCN3rI_6policy5typess_0pEINtB5_14PermissionListpENtNtCs66KPHxksi63_4core7default7Default7defaultB7_
FN:81,_RNvXNtCs9BW4kNCN3rI_6policy5typesNtB2_16CapabilityActionNtNtCs66KPHxksi63_4core3fmt7Display3fmt
FN:179,_RNvMs0_NtCs9BW4kNCN3rI_6policy5typesNtB5_11Permissions20validate_storage_uri
FN:207,_RNvMs0_NtCs9BW4kNCN3rI_6policy5typesNtB5_11Permissions21validate_network_host
FN:229,_RNvMs0_NtCs9BW4kNCN3rI_6policy5typesNtB5_11Permissions24validate_environment_key
FN:243,_RNvMs0_NtCs9BW4kNCN3rI_6policy5typesNtB5_11Permissions8validate
FN:348,_RNvNtNtCs9BW4kNCN3rI_6policy5types5testss_22test_valid_permissions
FN:333,_RNvNtNtCs9BW4kNCN3rI_6policy5types5testss_28test_network_cidr_validation
FN:394,_RNvNtNtCs9BW4kNCN3rI_6policy5types5testss_31test_environment_key_validation
FN:462,_RNvNtNtCs9BW4kNCN3rI_6policy5types5testss_34test_invalid_wildcard_combinations
FN:317,_RNvNtNtCs9BW4kNCN3rI_6policy5types5testss_34test_storage_permission_validation
FN:364,_RNvNtNtCs9BW4kNCN3rI_6policy5types5testss_36test_storage_uri_wildcard_validation
FN:378,_RNvNtNtCs9BW4kNCN3rI_6policy5types5testss_37test_network_host_wildcard_validation
FN:410,_RNvNtNtCs9BW4kNCN3rI_6policy5types5testss_38test_comprehensive_wildcard_validation
FN:153,_RNvXs_NtCs4Y0O4BHKvcK_6policy5typesINtB4_14PermissionListNtB4_17NetworkPermissionENtNtCs66KPHxksi63_4core7default7Default7defaultCs2TM9D3hGgt_8wassette
FN:153,_RNvXs_NtCs4Y0O4BHKvcK_6policy5typesINtB4_14PermissionListNtB4_17StoragePermissionENtNtCs66KPHxksi63_4core7default7Default7defaultCs2TM9D3hGgt_8wassette
FNDA:0,_RNvXs_NtCs4Y0O4BHKvcK_6policy5typesINtB4_14PermissionListNtB4_17NetworkPermissionENtNtCs66KPHxksi63_4core7default7Default7defaultCsaa7tasbM8Sl_8wassette
FNDA:0,_RNvXs_NtCs4Y0O4BHKvcK_6policy5typesINtB4_14PermissionListNtB4_17StoragePermissionENtNtCs66KPHxksi63_4core7default7Default7defaultCsaa7tasbM8Sl_8wassette
FNDA:25,_RNvMs0_NtCs4Y0O4BHKvcK_6policy5typesNtB5_11Permissions20validate_storage_uri
FNDA:8,_RNvMs0_NtCs4Y0O4BHKvcK_6policy5typesNtB5_11Permissions21validate_network_host
FNDA:12,_RNvMs0_NtCs4Y0O4BHKvcK_6policy5typesNtB5_11Permissions24validate_environment_key
FNDA:15,_RNvMs0_NtCs4Y0O4BHKvcK_6policy5typesNtB5_11Permissions8validate
FNDA:0,_RNvXNtCs4Y0O4BHKvcK_6policy5typesNtB2_16CapabilityActionNtNtCs66KPHxksi63_4core3fmt7Display3fmt
FNDA:0,_RNvXININtCs9BW4kNCN3rI_6policy5typess_0pEINtB5_14PermissionListpENtNtCs66KPHxksi63_4core7default7Default7defaultB7_
FNDA:0,_RNvXNtCs9BW4kNCN3rI_6policy5typesNtB2_16CapabilityActionNtNtCs66KPHxksi63_4core3fmt7Display3fmt
FNDA:166,_RNvMs0_NtCs9BW4kNCN3rI_6policy5typesNtB5_11Permissions20validate_storage_uri
FNDA:151,_RNvMs0_NtCs9BW4kNCN3rI_6policy5typesNtB5_11Permissions21validate_network_host
FNDA:237,_RNvMs0_NtCs9BW4kNCN3rI_6policy5typesNtB5_11Permissions24validate_environment_key
FNDA:81,_RNvMs0_NtCs9BW4kNCN3rI_6policy5typesNtB5_11Permissions8validate
FNDA:1,_RNvNtNtCs9BW4kNCN3rI_6policy5types5testss_22test_valid_permissions
FNDA:1,_RNvNtNtCs9BW4kNCN3rI_6policy5types5testss_28test_network_cidr_validation
FNDA:1,_RNvNtNtCs9BW4kNCN3rI_6policy5types5testss_31test_environment_key_validation
FNDA:1,_RNvNtNtCs9BW4kNCN3rI_6policy5types5testss_34test_invalid_wildcard_combinations
FNDA:1,_RNvNtNtCs9BW4kNCN3rI_6policy5types5testss_34test_storage_permission_validation
FNDA:1,_RNvNtNtCs9BW4kNCN3rI_6policy5types5testss_36test_storage_uri_wildcard_validation
FNDA:1,_RNvNtNtCs9BW4kNCN3rI_6policy5types5testss_37test_network_host_wildcard_validation
FNDA:1,_RNvNtNtCs9BW4kNCN3rI_6policy5types5testss_38test_comprehensive_wildcard_validation
FNDA:0,_RNvXs_NtCs4Y0O4BHKvcK_6policy5typesINtB4_14PermissionListNtB4_17NetworkPermissionENtNtCs66KPHxksi63_4core7default7Default7defaultCs2TM9D3hGgt_8wassette
FNDA:0,_RNvXs_NtCs4Y0O4BHKvcK_6policy5typesINtB4_14PermissionListNtB4_17StoragePermissionENtNtCs66KPHxksi63_4core7default7Default7defaultCs2TM9D3hGgt_8wassette
FNF:14
FNH:12
DA:81,0
DA:82,0
DA:83,0
DA:84,0
DA:85,0
DA:86,0
DA:88,0
DA:153,0
DA:154,0
DA:155,0
DA:156,0
DA:157,0
DA:158,0
DA:179,191
DA:180,191
DA:181,2
DA:182,189
DA:184,189
DA:185,1
DA:186,188
DA:189,188
DA:190,841
DA:191,841
DA:192,4
DA:193,837
DA:196,837
DA:197,6
DA:198,6
DA:199,0
DA:200,6
DA:201,831
DA:204,184
DA:205,191
DA:207,159
DA:208,159
DA:209,1
DA:210,158
DA:212,158
DA:213,2
DA:214,156
DA:216,156
DA:217,3
DA:218,153
DA:220,153
DA:221,82
DA:222,2
DA:223,80
DA:224,71
DA:226,151
DA:227,159
DA:229,249
DA:230,249
DA:231,1
DA:232,248
DA:235,248
DA:236,8
DA:237,240
DA:239,240
DA:240,249
DA:243,96
DA:244,96
DA:245,62
DA:246,199
DA:247,139
DA:248,137
DA:249,0
DA:250,137
DA:252,0
DA:253,60
DA:254,74
DA:255,43
DA:256,43
DA:257,0
DA:258,43
DA:260,29
DA:261,34
DA:263,94
DA:264,52
DA:265,227
DA:266,177
DA:267,117
DA:268,117
DA:270,60
DA:271,60
DA:272,0
DA:273,60
DA:274,60
DA:275,1
DA:276,59
DA:280,0
DA:281,50
DA:282,74
DA:283,49
DA:284,31
DA:285,31
DA:287,18
DA:288,18
DA:289,0
DA:290,18
DA:291,18
DA:292,0
DA:293,18
DA:297,25
DA:298,42
DA:300,92
DA:301,51
DA:302,287
DA:303,238
DA:305,1
DA:306,41
DA:308,91
DA:309,96
DA:317,1
DA:318,1
DA:319,1
DA:320,1
DA:321,1
DA:322,1
DA:323,1
DA:324,1
DA:325,1
DA:326,1
DA:327,1
DA:329,1
DA:330,1
DA:333,1
DA:334,1
DA:335,1
DA:336,1
DA:337,1
DA:338,1
DA:339,1
DA:340,1
DA:341,1
DA:342,1
DA:344,1
DA:345,1
DA:348,1
DA:349,1
DA:350,1
DA:351,1
DA:352,1
DA:353,1
DA:354,1
DA:355,1
DA:356,1
DA:357,1
DA:358,1
DA:360,1
DA:361,1
DA:364,1
DA:365,1
DA:366,1
DA:367,1
DA:368,1
DA:370,1
DA:371,1
DA:372,1
DA:373,1
DA:374,1
DA:375,1
DA:378,1
DA:379,1
DA:380,1
DA:381,1
DA:382,1
DA:384,1
DA:385,1
DA:386,1
DA:387,1
DA:388,1
DA:389,1
DA:390,1
DA:391,1
DA:394,1
DA:395,1
DA:396,1
DA:397,1
DA:399,1
DA:400,1
DA:401,1
DA:402,1
DA:403,1
DA:404,1
DA:405,1
DA:406,1
DA:407,1
DA:410,1
DA:411,1
DA:412,1
DA:413,1
DA:414,1
DA:415,1
DA:416,1
DA:417,1
DA:418,1
DA:419,1
DA:420,1
DA:421,1
DA:422,1
DA:423,1
DA:424,1
DA:425,1
DA:426,1
DA:427,1
DA:428,1
DA:429,1
DA:430,1
DA:431,1
DA:432,1
DA:433,1
DA:434,1
DA:435,1
DA:436,1
DA:437,1
DA:438,1
DA:439,1
DA:440,1
DA:441,1
DA:442,1
DA:443,1
DA:444,1
DA:445,1
DA:446,1
DA:447,1
DA:448,1
DA:449,1
DA:450,1
DA:451,1
DA:452,1
DA:453,1
DA:454,1
DA:455,1
DA:456,1
DA:458,1
DA:459,1
DA:462,1
DA:463,1
DA:464,1
DA:465,1
DA:466,1
DA:467,1
DA:468,1
DA:469,1
DA:470,1
DA:471,1
DA:472,1
DA:474,1
DA:476,1
DA:477,1
DA:478,1
DA:479,1
DA:480,1
DA:481,1
DA:482,1
DA:483,1
DA:485,1
DA:486,1
DA:487,1
DA:488,1
DA:489,1
DA:490,1
DA:491,1
DA:492,1
BRF:0
BRH:0
LF:264
LH:242
end_of_record
SF:/home/runner/work/wassette/wassette/crates/wassette/src/http.rs
FN:91,_RNCNvMs_NtCsaa7tasbM8Sl_8wassette4httpINtB6_17WassetteWasiStateNtNtB8_9wasistate9WasiStateE15is_host_allowed0CsfVGYiQvi1X6_10mcp_server
FN:84,_RNvMs_NtCsaa7tasbM8Sl_8wassette4httpINtB4_17WassetteWasiStateNtNtB6_9wasistate9WasiStateE15is_host_allowedCsfVGYiQvi1X6_10mcp_server
FN:105,_RNvXs0_NtCsaa7tasbM8Sl_8wassette4httpINtB5_17WassetteWasiStateNtNtB7_9wasistate9WasiStateENtCs110aWeMLEFF_16wasmtime_wasi_io6IoView5tableCsfVGYiQvi1X6_10mcp_server
FN:111,_RNvXs1_NtCsaa7tasbM8Sl_8wassette4httpINtB5_17WassetteWasiStateNtNtB7_9wasistate9WasiStateENtNtNtCsdd3XX0FC8WL_13wasmtime_wasi2p24view8WasiView3ctxCsfVGYiQvi1X6_10mcp_server
FN:130,_RNvXs2_NtCsaa7tasbM8Sl_8wassette4httpINtB5_17WassetteWasiStateNtNtB7_9wasistate9WasiStateENtNtCs8NmfeQ6pAju_18wasmtime_wasi_http5types12WasiHttpView12send_requestCsfVGYiQvi1X6_10mcp_server
FN:156,_RNvXs2_NtCsaa7tasbM8Sl_8wassette4httpINtB5_17WassetteWasiStateNtNtB7_9wasistate9WasiStateENtNtCs8NmfeQ6pAju_18wasmtime_wasi_http5types12WasiHttpView19is_forbidden_headerCsfVGYiQvi1X6_10mcp_server
FN:121,_RNvXs2_NtCsaa7tasbM8Sl_8wassette4httpINtB5_17WassetteWasiStateNtNtB7_9wasistate9WasiStateENtNtCs8NmfeQ6pAju_18wasmtime_wasi_http5types12WasiHttpView21new_response_outparamCsfVGYiQvi1X6_10mcp_server
FN:164,_RNvXs2_NtCsaa7tasbM8Sl_8wassette4httpINtB5_17WassetteWasiStateNtNtB7_9wasistate9WasiStateENtNtCs8NmfeQ6pAju_18wasmtime_wasi_http5types12WasiHttpView24outgoing_body_chunk_sizeCsfVGYiQvi1X6_10mcp_server
FN:160,_RNvXs2_NtCsaa7tasbM8Sl_8wassette4httpINtB5_17WassetteWasiStateNtNtB7_9wasistate9WasiStateENtNtCs8NmfeQ6pAju_18wasmtime_wasi_http5types12WasiHttpView27outgoing_body_buffer_chunksCsfVGYiQvi1X6_10mcp_server
FN:117,_RNvXs2_NtCsaa7tasbM8Sl_8wassette4httpINtB5_17WassetteWasiStateNtNtB7_9wasistate9WasiStateENtNtCs8NmfeQ6pAju_18wasmtime_wasi_http5types12WasiHttpView3ctxCsfVGYiQvi1X6_10mcp_server
FN:38,_RNvMNtCsaa7tasbM8Sl_8wassette4httpNtB2_11AllowedHost7matches
FN:22,_RNvMNtCsaa7tasbM8Sl_8wassette4httpNtB2_11AllowedHost8from_str
FN:175,_RNvNtNtCs2TM9D3hGgt_8wassette4http5tests22create_mock_wasi_state
FN:283,_RNvNtNtCs2TM9D3hGgt_8wassette4http5testss_26test_new_with_invalid_host
FN:246,_RNvNtNtCs2TM9D3hGgt_8wassette4http5testss_27test_host_allowed_with_port
FN:214,_RNvNtNtCs2TM9D3hGgt_8wassette4http5testss_29test_host_allowed_exact_match
FN:260,_RNvNtNtCs2TM9D3hGgt_8wassette4http5testss_29test_scheme_specific_matching
FN:230,_RNvNtNtCs2TM9D3hGgt_8wassette4http5testss_31test_host_allowed_with_protocol
FN:295,_RNvNtNtCs2TM9D3hGgt_8wassette4http5testss_38test_host_matching_is_case_insensitive
FN:91,_RNCNvMs_NtCs2TM9D3hGgt_8wassette4httpINtB6_17WassetteWasiStateNtNtB6_5tests13MockWasiStateE15is_host_allowed0B8_
FN:91,_RNCNvMs_NtCs2TM9D3hGgt_8wassette4httpINtB6_17WassetteWasiStateNtNtB8_9wasistate9WasiStateE15is_host_allowed0B8_
FN:84,_RNvMs_NtCs2TM9D3hGgt_8wassette4httpINtB4_17WassetteWasiStateNtNtB4_5tests13MockWasiStateE15is_host_allowedB6_
FN:62,_RNvMs_NtCs2TM9D3hGgt_8wassette4httpINtB4_17WassetteWasiStateNtNtB4_5tests13MockWasiStateE3newB6_
FN:84,_RNvMs_NtCs2TM9D3hGgt_8wassette4httpINtB4_17WassetteWasiStateNtNtB6_9wasistate9WasiStateE15is_host_allowedB6_
FN:62,_RNvMs_NtCs2TM9D3hGgt_8wassette4httpINtB4_17WassetteWasiStateNtNtB6_9wasistate9WasiStateE3newB6_
FN:105,_RNvXs0_NtCs2TM9D3hGgt_8wassette4httpINtB5_17WassetteWasiStateNtNtB7_9wasistate9WasiStateENtCs110aWeMLEFF_16wasmtime_wasi_io6IoView5tableB7_
FN:111,_RNvXs1_NtCs2TM9D3hGgt_8wassette4httpINtB5_17WassetteWasiStateNtNtB7_9wasistate9WasiStateENtNtNtCsdd3XX0FC8WL_13wasmtime_wasi2p24view8WasiView3ctxB7_
FN:130,_RNvXs2_NtCs2TM9D3hGgt_8wassette4httpINtB5_17WassetteWasiStateNtNtB7_9wasistate9WasiStateENtNtCs8NmfeQ6pAju_18wasmtime_wasi_http5types12WasiHttpView12send_requestB7_
FN:156,_RNvXs2_NtCs2TM9D3hGgt_8wassette4httpINtB5_17WassetteWasiStateNtNtB7_9wasistate9WasiStateENtNtCs8NmfeQ6pAju_18wasmtime_wasi_http5types12WasiHttpView19is_forbidden_headerB7_
FN:121,_RNvXs2_NtCs2TM9D3hGgt_8wassette4httpINtB5_17WassetteWasiStateNtNtB7_9wasistate9WasiStateENtNtCs8NmfeQ6pAju_18wasmtime_wasi_http5types12WasiHttpView21new_response_outparamB7_
FN:164,_RNvXs2_NtCs2TM9D3hGgt_8wassette4httpINtB5_17WassetteWasiStateNtNtB7_9wasistate9WasiStateENtNtCs8NmfeQ6pAju_18wasmtime_wasi_http5types12WasiHttpView24outgoing_body_chunk_sizeB7_
FN:160,_RNvXs2_NtCs2TM9D3hGgt_8wassette4httpINtB5_17WassetteWasiStateNtNtB7_9wasistate9WasiStateENtNtCs8NmfeQ6pAju_18wasmtime_wasi_http5types12WasiHttpView27outgoing_body_buffer_chunksB7_
FN:117,_RNvXs2_NtCs2TM9D3hGgt_8wassette4httpINtB5_17WassetteWasiStateNtNtB7_9wasistate9WasiStateENtNtCs8NmfeQ6pAju_18wasmtime_wasi_http5types12WasiHttpView3ctxB7_
FN:182,_RNvXNtNtCs2TM9D3hGgt_8wassette4http5testsNtB2_13MockWasiStateNtCs110aWeMLEFF_16wasmtime_wasi_io6IoView5table
FN:204,_RNvXs_NtNtCs2TM9D3hGgt_8wassette4http5testsNtB4_13MockWasiStateNtNtCs8NmfeQ6pAju_18wasmtime_wasi_http5types12WasiHttpView12send_request
FN:192,_RNvXs_NtNtCs2TM9D3hGgt_8wassette4http5testsNtB4_13MockWasiStateNtNtCs8NmfeQ6pAju_18wasmtime_wasi_http5types12WasiHttpView21new_response_outparam
FN:188,_RNvXs_NtNtCs2TM9D3hGgt_8wassette4http5testsNtB4_13MockWasiStateNtNtCs8NmfeQ6pAju_18wasmtime_wasi_http5types12WasiHttpView3ctx
FN:38,_RNvMNtCs2TM9D3hGgt_8wassette4httpNtB2_11AllowedHost7matches
FN:22,_RNvMNtCs2TM9D3hGgt_8wassette4httpNtB2_11AllowedHost8from_str
FNDA:0,_RNCNvMs_NtCsaa7tasbM8Sl_8wassette4httpINtB6_17WassetteWasiStateNtNtB8_9wasistate9WasiStateE15is_host_allowed0CsfVGYiQvi1X6_10mcp_server
FNDA:0,_RNvMs_NtCsaa7tasbM8Sl_8wassette4httpINtB4_17WassetteWasiStateNtNtB6_9wasistate9WasiStateE15is_host_allowedCsfVGYiQvi1X6_10mcp_server
FNDA:0,_RNvXs0_NtCsaa7tasbM8Sl_8wassette4httpINtB5_17WassetteWasiStateNtNtB7_9wasistate9WasiStateENtCs110aWeMLEFF_16wasmtime_wasi_io6IoView5tableCsfVGYiQvi1X6_10mcp_server
FNDA:0,_RNvXs1_NtCsaa7tasbM8Sl_8wassette4httpINtB5_17WassetteWasiStateNtNtB7_9wasistate9WasiStateENtNtNtCsdd3XX0FC8WL_13wasmtime_wasi2p24view8WasiView3ctxCsfVGYiQvi1X6_10mcp_server
FNDA:0,_RNvXs2_NtCsaa7tasbM8Sl_8wassette4httpINtB5_17WassetteWasiStateNtNtB7_9wasistate9WasiStateENtNtCs8NmfeQ6pAju_18wasmtime_wasi_http5types12WasiHttpView12send_requestCsfVGYiQvi1X6_10mcp_server
FNDA:0,_RNvXs2_NtCsaa7tasbM8Sl_8wassette4httpINtB5_17WassetteWasiStateNtNtB7_9wasistate9WasiStateENtNtCs8NmfeQ6pAju_18wasmtime_wasi_http5types12WasiHttpView19is_forbidden_headerCsfVGYiQvi1X6_10mcp_server
FNDA:0,_RNvXs2_NtCsaa7tasbM8Sl_8wassette4httpINtB5_17WassetteWasiStateNtNtB7_9wasistate9WasiStateENtNtCs8NmfeQ6pAju_18wasmtime_wasi_http5types12WasiHttpView21new_response_outparamCsfVGYiQvi1X6_10mcp_server
FNDA:0,_RNvXs2_NtCsaa7tasbM8Sl_8wassette4httpINtB5_17WassetteWasiStateNtNtB7_9wasistate9WasiStateENtNtCs8NmfeQ6pAju_18wasmtime_wasi_http5types12WasiHttpView24outgoing_body_chunk_sizeCsfVGYiQvi1X6_10mcp_server
FNDA:0,_RNvXs2_NtCsaa7tasbM8Sl_8wassette4httpINtB5_17WassetteWasiStateNtNtB7_9wasistate9WasiStateENtNtCs8NmfeQ6pAju_18wasmtime_wasi_http5types12WasiHttpView27outgoing_body_buffer_chunksCsfVGYiQvi1X6_10mcp_server
FNDA:0,_RNvXs2_NtCsaa7tasbM8Sl_8wassette4httpINtB5_17WassetteWasiStateNtNtB7_9wasistate9WasiStateENtNtCs8NmfeQ6pAju_18wasmtime_wasi_http5types12WasiHttpView3ctxCsfVGYiQvi1X6_10mcp_server
FNDA:0,_RNvMNtCsaa7tasbM8Sl_8wassette4httpNtB2_11AllowedHost7matches
FNDA:0,_RNvMNtCsaa7tasbM8Sl_8wassette4httpNtB2_11AllowedHost8from_str
FNDA:6,_RNvNtNtCs2TM9D3hGgt_8wassette4http5tests22create_mock_wasi_state
FNDA:1,_RNvNtNtCs2TM9D3hGgt_8wassette4http5testss_26test_new_with_invalid_host
FNDA:1,_RNvNtNtCs2TM9D3hGgt_8wassette4http5testss_27test_host_allowed_with_port
FNDA:1,_RNvNtNtCs2TM9D3hGgt_8wassette4http5testss_29test_host_allowed_exact_match
FNDA:1,_RNvNtNtCs2TM9D3hGgt_8wassette4http5testss_29test_scheme_specific_matching
FNDA:1,_RNvNtNtCs2TM9D3hGgt_8wassette4http5testss_31test_host_allowed_with_protocol
FNDA:1,_RNvNtNtCs2TM9D3hGgt_8wassette4http5testss_38test_host_matching_is_case_insensitive
FNDA:14,_RNCNvMs_NtCs2TM9D3hGgt_8wassette4httpINtB6_17WassetteWasiStateNtNtB6_5tests13MockWasiStateE15is_host_allowed0B8_
FNDA:0,_RNCNvMs_NtCs2TM9D3hGgt_8wassette4httpINtB6_17WassetteWasiStateNtNtB8_9wasistate9WasiStateE15is_host_allowed0B8_
FNDA:14,_RNvMs_NtCs2TM9D3hGgt_8wassette4httpINtB4_17WassetteWasiStateNtNtB4_5tests13MockWasiStateE15is_host_allowedB6_
FNDA:6,_RNvMs_NtCs2TM9D3hGgt_8wassette4httpINtB4_17WassetteWasiStateNtNtB4_5tests13MockWasiStateE3newB6_
FNDA:0,_RNvMs_NtCs2TM9D3hGgt_8wassette4httpINtB4_17WassetteWasiStateNtNtB6_9wasistate9WasiStateE15is_host_allowedB6_
FNDA:0,_RNvMs_NtCs2TM9D3hGgt_8wassette4httpINtB4_17WassetteWasiStateNtNtB6_9wasistate9WasiStateE3newB6_
FNDA:0,_RNvXs0_NtCs2TM9D3hGgt_8wassette4httpINtB5_17WassetteWasiStateNtNtB7_9wasistate9WasiStateENtCs110aWeMLEFF_16wasmtime_wasi_io6IoView5tableB7_
FNDA:0,_RNvXs1_NtCs2TM9D3hGgt_8wassette4httpINtB5_17WassetteWasiStateNtNtB7_9wasistate9WasiStateENtNtNtCsdd3XX0FC8WL_13wasmtime_wasi2p24view8WasiView3ctxB7_
FNDA:0,_RNvXs2_NtCs2TM9D3hGgt_8wassette4httpINtB5_17WassetteWasiStateNtNtB7_9wasistate9WasiStateENtNtCs8NmfeQ6pAju_18wasmtime_wasi_http5types12WasiHttpView12send_requestB7_
FNDA:0,_RNvXs2_NtCs2TM9D3hGgt_8wassette4httpINtB5_17WassetteWasiStateNtNtB7_9wasistate9WasiStateENtNtCs8NmfeQ6pAju_18wasmtime_wasi_http5types12WasiHttpView19is_forbidden_headerB7_
FNDA:0,_RNvXs2_NtCs2TM9D3hGgt_8wassette4httpINtB5_17WassetteWasiStateNtNtB7_9wasistate9WasiStateENtNtCs8NmfeQ6pAju_18wasmtime_wasi_http5types12WasiHttpView21new_response_outparamB7_
FNDA:0,_RNvXs2_NtCs2TM9D3hGgt_8wassette4httpINtB5_17WassetteWasiStateNtNtB7_9wasistate9WasiStateENtNtCs8NmfeQ6pAju_18wasmtime_wasi_http5types12WasiHttpView24outgoing_body_chunk_sizeB7_
FNDA:0,_RNvXs2_NtCs2TM9D3hGgt_8wassette4httpINtB5_17WassetteWasiStateNtNtB7_9wasistate9WasiStateENtNtCs8NmfeQ6pAju_18wasmtime_wasi_http5types12WasiHttpView27outgoing_body_buffer_chunksB7_
FNDA:0,_RNvXs2_NtCs2TM9D3hGgt_8wassette4httpINtB5_17WassetteWasiStateNtNtB7_9wasistate9WasiStateENtNtCs8NmfeQ6pAju_18wasmtime_wasi_http5types12WasiHttpView3ctxB7_
FNDA:0,_RNvXNtNtCs2TM9D3hGgt_8wassette4http5testsNtB2_13MockWasiStateNtCs110aWeMLEFF_16wasmtime_wasi_io6IoView5table
FNDA:0,_RNvXs_NtNtCs2TM9D3hGgt_8wassette4http5testsNtB4_13MockWasiStateNtNtCs8NmfeQ6pAju_18wasmtime_wasi_http5types12WasiHttpView12send_request
FNDA:0,_RNvXs_NtNtCs2TM9D3hGgt_8wassette4http5testsNtB4_13MockWasiStateNtNtCs8NmfeQ6pAju_18wasmtime_wasi_http5types12WasiHttpView21new_response_outparam
FNDA:0,_RNvXs_NtNtCs2TM9D3hGgt_8wassette4http5testsNtB4_13MockWasiStateNtNtCs8NmfeQ6pAju_18wasmtime_wasi_http5types12WasiHttpView3ctx
FNDA:17,_RNvMNtCs2TM9D3hGgt_8wassette4httpNtB2_11AllowedHost7matches
FNDA:8,_RNvMNtCs2TM9D3hGgt_8wassette4httpNtB2_11AllowedHost8from_str
FNF:24
FNH:12
DA:22,8
DA:23,8
DA:24,2
DA:25,2
DA:26,2
DA:27,2
DA:28,6
DA:29,5
DA:30,5
DA:31,5
DA:32,5
DA:34,1
DA:36,8
DA:38,17
DA:39,17
DA:40,5
DA:41,12
DA:43,12
DA:44,5
DA:45,7
DA:47,17
DA:62,6
DA:63,6
DA:65,13
DA:66,8
DA:67,7
DA:68,7
DA:69,7
DA:70,1
DA:71,1
DA:72,1
DA:77,5
DA:78,5
DA:79,5
DA:80,5
DA:81,6
DA:84,14
DA:85,14
DA:86,14
DA:88,0
DA:91,14
DA:93,14
DA:94,22
DA:95,17
DA:96,9
DA:97,8
DA:100,5
DA:101,14
DA:105,0
DA:106,0
DA:107,0
DA:111,0
DA:112,0
DA:113,0
DA:117,0
DA:118,0
DA:119,0
DA:121,0
DA:122,0
DA:123,0
DA:124,0
DA:125,0
DA:126,0
DA:127,0
DA:128,0
DA:130,0
DA:131,0
DA:132,0
DA:133,0
DA:134,0
DA:135,0
DA:137,0
DA:138,0
DA:139,0
DA:140,0
DA:142,0
DA:143,0
DA:146,0
DA:148,0
DA:149,0
DA:151,0
DA:153,0
DA:154,0
DA:156,0
DA:157,0
DA:158,0
DA:160,0
DA:161,0
DA:162,0
DA:164,0
DA:165,0
DA:166,0
DA:175,6
DA:176,6
DA:177,6
DA:182,0
DA:183,0
DA:188,0
DA:189,0
DA:192,0
DA:193,0
DA:194,0
DA:195,0
DA:196,0
DA:197,0
DA:198,0
DA:199,0
DA:200,0
DA:201,0
DA:204,0
DA:205,0
DA:206,0
DA:207,0
DA:208,0
DA:209,0
DA:214,1
DA:215,1
DA:216,1
DA:218,1
DA:220,1
DA:221,1
DA:222,1
DA:224,1
DA:225,1
DA:226,1
DA:227,1
DA:230,1
DA:231,1
DA:232,1
DA:234,1
DA:236,1
DA:237,1
DA:238,1
DA:240,1
DA:241,1
DA:242,1
DA:243,1
DA:246,1
DA:247,1
DA:248,1
DA:250,1
DA:252,1
DA:253,1
DA:255,1
DA:256,1
DA:257,1
DA:260,1
DA:261,1
DA:262,1
DA:263,1
DA:265,1
DA:268,1
DA:269,1
DA:271,1
DA:272,1
DA:275,1
DA:276,1
DA:278,1
DA:279,1
DA:280,1
DA:283,1
DA:284,1
DA:285,1
DA:286,1
DA:288,1
DA:289,0
DA:290,1
DA:292,1
DA:295,1
DA:296,1
DA:297,1
DA:299,1
DA:301,1
DA:302,1
DA:304,1
DA:305,1
DA:306,1
BRF:0
BRH:0
LF:178
LH:112
end_of_record
SF:/home/runner/work/wassette/wassette/crates/wassette/src/lib.rs
FN:181,_RINvMs_Csaa7tasbM8Sl_8wassetteNtB5_16LifecycleManager15new_with_policyRNtNtCsiKSG5X70Gj7_3std4path4PathECsfVGYiQvi1X6_10mcp_server
FN:159,_RINvMs_Csaa7tasbM8Sl_8wassetteNtB5_16LifecycleManager16new_with_clientsRNtNtCsiOgtAWxefNV_8tempfile3dir7TempDirECsfVGYiQvi1X6_10mcp_server
FN:148,_RINvMs_Csaa7tasbM8Sl_8wassetteNtB5_16LifecycleManager3newRNtNtCsiOgtAWxefNV_8tempfile3dir7TempDirECsfVGYiQvi1X6_10mcp_server
FN:186,_RNCINvMs_Csaa7tasbM8Sl_8wassetteNtB7_16LifecycleManager15new_with_policyRNtNtCsiKSG5X70Gj7_3std4path4PathE0CsfVGYiQvi1X6_10mcp_server
FN:163,_RNCINvMs_Csaa7tasbM8Sl_8wassetteNtB7_16LifecycleManager16new_with_clientsRNtNtCsiOgtAWxefNV_8tempfile3dir7TempDirE0CsfVGYiQvi1X6_10mcp_server
FN:148,_RNCINvMs_Csaa7tasbM8Sl_8wassetteNtB7_16LifecycleManager3newRNtNtCsiOgtAWxefNV_8tempfile3dir7TempDirE0CsfVGYiQvi1X6_10mcp_server
FN:201,_RNCNCNCINvMs_Csaa7tasbM8Sl_8wassetteNtBb_16LifecycleManager15new_with_policyRNtNtCsiKSG5X70Gj7_3std4path4PathE000CsfVGYiQvi1X6_10mcp_server
FN:568,_RNCNCNvCsaa7tasbM8Sl_8wassette24load_components_parallel00CsfVGYiQvi1X6_10mcp_server
FN:648,_RNCNCNvCsaa7tasbM8Sl_8wassette25load_component_from_entry00CsfVGYiQvi1X6_10mcp_server
FN:660,_RNCNCNvCsaa7tasbM8Sl_8wassette25load_component_from_entry0s0_0CsfVGYiQvi1X6_10mcp_server
FN:664,_RNCNCNvCsaa7tasbM8Sl_8wassette25load_component_from_entry0s1_0CsfVGYiQvi1X6_10mcp_server
FN:653,_RNCNCNvCsaa7tasbM8Sl_8wassette25load_component_from_entry0s_0CsfVGYiQvi1X6_10mcp_server
FN:561,_RNCNvCsaa7tasbM8Sl_8wassette24load_components_parallel0CsfVGYiQvi1X6_10mcp_server
FN:643,_RNCNvCsaa7tasbM8Sl_8wassette25load_component_from_entry0CsfVGYiQvi1X6_10mcp_server
FN:598,_RNCNvMs0_Csaa7tasbM8Sl_8wassetteNtB7_16LifecycleManager32revoke_storage_permission_by_uri0CsfVGYiQvi1X6_10mcp_server
FN:335,_RNCNvMs_Csaa7tasbM8Sl_8wassetteNtB6_16LifecycleManager21remove_file_if_exists0CsfVGYiQvi1X6_10mcp_server
FN:557,_RNvCsaa7tasbM8Sl_8wassette24load_components_parallel
FN:639,_RNvCsaa7tasbM8Sl_8wassette25load_component_from_entry
FN:115,_RNvMCsaa7tasbM8Sl_8wassetteNtB2_17ComponentRegistry10list_tools
FN:111,_RNvMCsaa7tasbM8Sl_8wassetteNtB2_17ComponentRegistry13get_tool_info
FN:69,_RNvMCsaa7tasbM8Sl_8wassetteNtB2_17ComponentRegistry14register_tools
FN:98,_RNvMCsaa7tasbM8Sl_8wassetteNtB2_17ComponentRegistry20unregister_component
FN:91,_RNvMCsaa7tasbM8Sl_8wassetteNtB2_17ComponentRegistry23get_function_identifier
FN:65,_RNvMCsaa7tasbM8Sl_8wassetteNtB2_17ComponentRegistry3new
FN:594,_RNvMs0_Csaa7tasbM8Sl_8wassetteNtB5_16LifecycleManager32revoke_storage_permission_by_uri
FN:621,_RNvMs0_Csaa7tasbM8Sl_8wassetteNtB5_16LifecycleManager44remove_storage_permission_by_uri_from_policy
FN:418,_RNvMs_Csaa7tasbM8Sl_8wassetteNtB4_16LifecycleManager10list_tools
FN:424,_RNvMs_Csaa7tasbM8Sl_8wassetteNtB4_16LifecycleManager13get_component
FN:445,_RNvMs_Csaa7tasbM8Sl_8wassetteNtB4_16LifecycleManager14component_path
FN:275,_RNvMs_Csaa7tasbM8Sl_8wassetteNtB4_16LifecycleManager14load_component
FN:430,_RNvMs_Csaa7tasbM8Sl_8wassetteNtB4_16LifecycleManager15list_components
FN:367,_RNvMs_Csaa7tasbM8Sl_8wassetteNtB4_16LifecycleManager16unload_component
FN:436,_RNvMs_Csaa7tasbM8Sl_8wassetteNtB4_16LifecycleManager20get_component_schema
FN:330,_RNvMs_Csaa7tasbM8Sl_8wassetteNtB4_16LifecycleManager21remove_file_if_exists
FN:469,_RNvMs_Csaa7tasbM8Sl_8wassetteNtB4_16LifecycleManager22execute_component_call
FN:395,_RNvMs_Csaa7tasbM8Sl_8wassetteNtB4_16LifecycleManager25get_component_id_for_tool
FN:449,_RNvMs_Csaa7tasbM8Sl_8wassetteNtB4_16LifecycleManager28get_wasi_state_for_component
FN:118,_RNCNCNvMCsaa7tasbM8Sl_8wassetteNtB6_17ComponentRegistry10list_tools00B6_
FN:118,_RNCNvMCsaa7tasbM8Sl_8wassetteNtB4_17ComponentRegistry10list_tools0B4_
FN:102,_RNCNvMCsaa7tasbM8Sl_8wassetteNtB4_17ComponentRegistry20unregister_component0B4_
FN:94,_RNCNvMCsaa7tasbM8Sl_8wassetteNtB4_17ComponentRegistry23get_function_identifier0B4_
FN:628,_RNCNvMs0_Csaa7tasbM8Sl_8wassetteNtB7_16LifecycleManager44remove_storage_permission_by_uri_from_policy0B7_
FN:700,_RNCNvMNtCs2TM9D3hGgt_8wassette5testsNtB4_20TestLifecycleManager19load_test_component0B6_
FN:719,_RNCNvNtCs2TM9D3hGgt_8wassette5tests19create_test_manager0B5_
FN:728,_RNCNvNtCs2TM9D3hGgt_8wassette5tests23build_example_component0B5_
FN:181,_RINvMs_Cs2TM9D3hGgt_8wassetteNtB5_16LifecycleManager15new_with_policyRNtNtCsiKSG5X70Gj7_3std4path4PathEB5_
FN:159,_RINvMs_Cs2TM9D3hGgt_8wassetteNtB5_16LifecycleManager16new_with_clientsRNtNtCsiOgtAWxefNV_8tempfile3dir7TempDirEB5_
FN:148,_RINvMs_Cs2TM9D3hGgt_8wassetteNtB5_16LifecycleManager3newRNtNtCsiOgtAWxefNV_8tempfile3dir7TempDirEB5_
FN:186,_RNCINvMs_Cs2TM9D3hGgt_8wassetteNtB7_16LifecycleManager15new_with_policyRNtNtCsiKSG5X70Gj7_3std4path4PathE0B7_
FN:163,_RNCINvMs_Cs2TM9D3hGgt_8wassetteNtB7_16LifecycleManager16new_with_clientsRNtNtCsiOgtAWxefNV_8tempfile3dir7TempDirE0B7_
FN:148,_RNCINvMs_Cs2TM9D3hGgt_8wassetteNtB7_16LifecycleManager3newRNtNtCsiOgtAWxefNV_8tempfile3dir7TempDirE0B7_
FN:201,_RNCNCNCINvMs_Cs2TM9D3hGgt_8wassetteNtBb_16LifecycleManager15new_with_policyRNtNtCsiKSG5X70Gj7_3std4path4PathE000Bb_
FN:286,_RNCNCNCNvMs_Cs2TM9D3hGgt_8wassetteNtBa_16LifecycleManager14load_component000Ba_
FN:478,_RNCNCNCNvMs_Cs2TM9D3hGgt_8wassetteNtBa_16LifecycleManager22execute_component_call000Ba_
FN:507,_RNCNCNCNvMs_Cs2TM9D3hGgt_8wassetteNtBa_16LifecycleManager22execute_component_call00s0_0Ba_
FN:511,_RNCNCNCNvMs_Cs2TM9D3hGgt_8wassetteNtBa_16LifecycleManager22execute_component_call00s1_0Ba_
FN:521,_RNCNCNCNvMs_Cs2TM9D3hGgt_8wassetteNtBa_16LifecycleManager22execute_component_call00s2_0Ba_
FN:531,_RNCNCNCNvMs_Cs2TM9D3hGgt_8wassetteNtBa_16LifecycleManager22execute_component_call00s3_0Ba_
FN:534,_RNCNCNCNvMs_Cs2TM9D3hGgt_8wassetteNtBa_16LifecycleManager22execute_component_call00s4_0Ba_
FN:496,_RNCNCNCNvMs_Cs2TM9D3hGgt_8wassetteNtBa_16LifecycleManager22execute_component_call00s_0Ba_
FN:407,_RNCNCNCNvMs_Cs2TM9D3hGgt_8wassetteNtBa_16LifecycleManager25get_component_id_for_tool000Ba_
FN:568,_RNCNCNvCs2TM9D3hGgt_8wassette24load_components_parallel00B5_
FN:648,_RNCNCNvCs2TM9D3hGgt_8wassette25load_component_from_entry00B5_
FN:660,_RNCNCNvCs2TM9D3hGgt_8wassette25load_component_from_entry0s0_0B5_
FN:664,_RNCNCNvCs2TM9D3hGgt_8wassette25load_component_from_entry0s1_0B5_
FN:653,_RNCNCNvCs2TM9D3hGgt_8wassette25load_component_from_entry0s_0B5_
FN:561,_RNCNvCs2TM9D3hGgt_8wassette24load_components_parallel0B3_
FN:643,_RNCNvCs2TM9D3hGgt_8wassette25load_component_from_entry0B3_
FN:102,_RNCNvMCs2TM9D3hGgt_8wassetteNtB4_17ComponentRegistry20unregister_component0B4_
FN:94,_RNCNvMCs2TM9D3hGgt_8wassetteNtB4_17ComponentRegistry23get_function_identifier0B4_
FN:424,_RNCNvMs_Cs2TM9D3hGgt_8wassetteNtB6_16LifecycleManager13get_component0B6_
FN:275,_RNCNvMs_Cs2TM9D3hGgt_8wassetteNtB6_16LifecycleManager14load_component0B6_
FN:430,_RNCNvMs_Cs2TM9D3hGgt_8wassetteNtB6_16LifecycleManager15list_components0B6_
FN:367,_RNCNvMs_Cs2TM9D3hGgt_8wassetteNtB6_16LifecycleManager16unload_component0B6_
FN:335,_RNCNvMs_Cs2TM9D3hGgt_8wassetteNtB6_16LifecycleManager21remove_file_if_exists0B6_
FN:474,_RNCNvMs_Cs2TM9D3hGgt_8wassetteNtB6_16LifecycleManager22execute_component_call0B6_
FN:395,_RNCNvMs_Cs2TM9D3hGgt_8wassetteNtB6_16LifecycleManager25get_component_id_for_tool0B6_
FN:452,_RNCNvMs_Cs2TM9D3hGgt_8wassetteNtB6_16LifecycleManager28get_wasi_state_for_component0B6_
FN:557,_RNvCs2TM9D3hGgt_8wassette24load_components_parallel
FN:639,_RNvCs2TM9D3hGgt_8wassette25load_component_from_entry
FN:111,_RNvMCs2TM9D3hGgt_8wassetteNtB2_17ComponentRegistry13get_tool_info
FN:69,_RNvMCs2TM9D3hGgt_8wassetteNtB2_17ComponentRegistry14register_tools
FN:98,_RNvMCs2TM9D3hGgt_8wassetteNtB2_17ComponentRegistry20unregister_component
FN:91,_RNvMCs2TM9D3hGgt_8wassetteNtB2_17ComponentRegistry23get_function_identifier
FN:65,_RNvMCs2TM9D3hGgt_8wassetteNtB2_17ComponentRegistry3new
FN:424,_RNvMs_Cs2TM9D3hGgt_8wassetteNtB4_16LifecycleManager13get_component
FN:445,_RNvMs_Cs2TM9D3hGgt_8wassetteNtB4_16LifecycleManager14component_path
FN:275,_RNvMs_Cs2TM9D3hGgt_8wassetteNtB4_16LifecycleManager14load_component
FN:430,_RNvMs_Cs2TM9D3hGgt_8wassetteNtB4_16LifecycleManager15list_components
FN:367,_RNvMs_Cs2TM9D3hGgt_8wassetteNtB4_16LifecycleManager16unload_component
FN:330,_RNvMs_Cs2TM9D3hGgt_8wassetteNtB4_16LifecycleManager21remove_file_if_exists
FN:469,_RNvMs_Cs2TM9D3hGgt_8wassetteNtB4_16LifecycleManager22execute_component_call
FN:395,_RNvMs_Cs2TM9D3hGgt_8wassetteNtB4_16LifecycleManager25get_component_id_for_tool
FN:449,_RNvMs_Cs2TM9D3hGgt_8wassetteNtB4_16LifecycleManager28get_wasi_state_for_component
FN:118,_RNCNCNvMCs2TM9D3hGgt_8wassetteNtB6_17ComponentRegistry10list_tools00B6_
FN:118,_RNCNvMCs2TM9D3hGgt_8wassetteNtB4_17ComponentRegistry10list_tools0B4_
FN:598,_RNCNvMs0_Cs2TM9D3hGgt_8wassetteNtB7_16LifecycleManager32revoke_storage_permission_by_uri0B7_
FN:628,_RNCNvMs0_Cs2TM9D3hGgt_8wassetteNtB7_16LifecycleManager44remove_storage_permission_by_uri_from_policy0B7_
FN:418,_RNCNvMs_Cs2TM9D3hGgt_8wassetteNtB6_16LifecycleManager10list_tools0B6_
FN:436,_RNCNvMs_Cs2TM9D3hGgt_8wassetteNtB6_16LifecycleManager20get_component_schema0B6_
FN:115,_RNvMCs2TM9D3hGgt_8wassetteNtB2_17ComponentRegistry10list_tools
FN:594,_RNvMs0_Cs2TM9D3hGgt_8wassetteNtB5_16LifecycleManager32revoke_storage_permission_by_uri
FN:621,_RNvMs0_Cs2TM9D3hGgt_8wassetteNtB5_16LifecycleManager44remove_storage_permission_by_uri_from_policy
FN:418,_RNvMs_Cs2TM9D3hGgt_8wassetteNtB4_16LifecycleManager10list_tools
FN:436,_RNvMs_Cs2TM9D3hGgt_8wassetteNtB4_16LifecycleManager20get_component_schema
FN:700,_RNvMNtCs2TM9D3hGgt_8wassette5testsNtB2_20TestLifecycleManager19load_test_component
FN:719,_RNvNtCs2TM9D3hGgt_8wassette5tests19create_test_manager
FN:728,_RNvNtCs2TM9D3hGgt_8wassette5tests23build_example_component
FN:714,_RNvXs_NtCs2TM9D3hGgt_8wassette5testsNtB4_20TestLifecycleManagerNtNtNtCs66KPHxksi63_4core3ops5deref5Deref5deref
FNDA:8,_RINvMs_Csaa7tasbM8Sl_8wassetteNtB5_16LifecycleManager15new_with_policyRNtNtCsiKSG5X70Gj7_3std4path4PathECsfVGYiQvi1X6_10mcp_server
FNDA:8,_RINvMs_Csaa7tasbM8Sl_8wassetteNtB5_16LifecycleManager16new_with_clientsRNtNtCsiOgtAWxefNV_8tempfile3dir7TempDirECsfVGYiQvi1X6_10mcp_server
FNDA:8,_RINvMs_Csaa7tasbM8Sl_8wassetteNtB5_16LifecycleManager3newRNtNtCsiOgtAWxefNV_8tempfile3dir7TempDirECsfVGYiQvi1X6_10mcp_server
FNDA:8,_RNCINvMs_Csaa7tasbM8Sl_8wassetteNtB7_16LifecycleManager15new_with_policyRNtNtCsiKSG5X70Gj7_3std4path4PathE0CsfVGYiQvi1X6_10mcp_server
FNDA:8,_RNCINvMs_Csaa7tasbM8Sl_8wassetteNtB7_16LifecycleManager16new_with_clientsRNtNtCsiOgtAWxefNV_8tempfile3dir7TempDirE0CsfVGYiQvi1X6_10mcp_server
FNDA:8,_RNCINvMs_Csaa7tasbM8Sl_8wassetteNtB7_16LifecycleManager3newRNtNtCsiOgtAWxefNV_8tempfile3dir7TempDirE0CsfVGYiQvi1X6_10mcp_server
FNDA:0,_RNCNCNCINvMs_Csaa7tasbM8Sl_8wassetteNtBb_16LifecycleManager15new_with_policyRNtNtCsiKSG5X70Gj7_3std4path4PathE000CsfVGYiQvi1X6_10mcp_server
FNDA:0,_RNCNCNvCsaa7tasbM8Sl_8wassette24load_components_parallel00CsfVGYiQvi1X6_10mcp_server
FNDA:0,_RNCNCNvCsaa7tasbM8Sl_8wassette25load_component_from_entry00CsfVGYiQvi1X6_10mcp_server
FNDA:0,_RNCNCNvCsaa7tasbM8Sl_8wassette25load_component_from_entry0s0_0CsfVGYiQvi1X6_10mcp_server
FNDA:0,_RNCNCNvCsaa7tasbM8Sl_8wassette25load_component_from_entry0s1_0CsfVGYiQvi1X6_10mcp_server
FNDA:0,_RNCNCNvCsaa7tasbM8Sl_8wassette25load_component_from_entry0s_0CsfVGYiQvi1X6_10mcp_server
FNDA:8,_RNCNvCsaa7tasbM8Sl_8wassette24load_components_parallel0CsfVGYiQvi1X6_10mcp_server
FNDA:0,_RNCNvCsaa7tasbM8Sl_8wassette25load_component_from_entry0CsfVGYiQvi1X6_10mcp_server
FNDA:1,_RNCNvMs0_Csaa7tasbM8Sl_8wassetteNtB7_16LifecycleManager32revoke_storage_permission_by_uri0CsfVGYiQvi1X6_10mcp_server
FNDA:0,_RNCNvMs_Csaa7tasbM8Sl_8wassetteNtB6_16LifecycleManager21remove_file_if_exists0CsfVGYiQvi1X6_10mcp_server
FNDA:8,_RNvCsaa7tasbM8Sl_8wassette24load_components_parallel
FNDA:0,_RNvCsaa7tasbM8Sl_8wassette25load_component_from_entry
FNDA:0,_RNvMCsaa7tasbM8Sl_8wassetteNtB2_17ComponentRegistry10list_tools
FNDA:0,_RNvMCsaa7tasbM8Sl_8wassetteNtB2_17ComponentRegistry13get_tool_info
FNDA:0,_RNvMCsaa7tasbM8Sl_8wassetteNtB2_17ComponentRegistry14register_tools
FNDA:0,_RNvMCsaa7tasbM8Sl_8wassetteNtB2_17ComponentRegistry20unregister_component
FNDA:0,_RNvMCsaa7tasbM8Sl_8wassetteNtB2_17ComponentRegistry23get_function_identifier
FNDA:8,_RNvMCsaa7tasbM8Sl_8wassetteNtB2_17ComponentRegistry3new
FNDA:1,_RNvMs0_Csaa7tasbM8Sl_8wassetteNtB5_16LifecycleManager32revoke_storage_permission_by_uri
FNDA:0,_RNvMs0_Csaa7tasbM8Sl_8wassetteNtB5_16LifecycleManager44remove_storage_permission_by_uri_from_policy
FNDA:0,_RNvMs_Csaa7tasbM8Sl_8wassetteNtB4_16LifecycleManager10list_tools
FNDA:0,_RNvMs_Csaa7tasbM8Sl_8wassetteNtB4_16LifecycleManager13get_component
FNDA:0,_RNvMs_Csaa7tasbM8Sl_8wassetteNtB4_16LifecycleManager14component_path
FNDA:0,_RNvMs_Csaa7tasbM8Sl_8wassetteNtB4_16LifecycleManager14load_component
FNDA:0,_RNvMs_Csaa7tasbM8Sl_8wassetteNtB4_16LifecycleManager15list_components
FNDA:0,_RNvMs_Csaa7tasbM8Sl_8wassetteNtB4_16LifecycleManager16unload_component
FNDA:0,_RNvMs_Csaa7tasbM8Sl_8wassetteNtB4_16LifecycleManager20get_component_schema
FNDA:0,_RNvMs_Csaa7tasbM8Sl_8wassetteNtB4_16LifecycleManager21remove_file_if_exists
FNDA:0,_RNvMs_Csaa7tasbM8Sl_8wassetteNtB4_16LifecycleManager22execute_component_call
FNDA:0,_RNvMs_Csaa7tasbM8Sl_8wassetteNtB4_16LifecycleManager25get_component_id_for_tool
FNDA:0,_RNvMs_Csaa7tasbM8Sl_8wassetteNtB4_16LifecycleManager28get_wasi_state_for_component
FNDA:0,_RNCNCNvMCsaa7tasbM8Sl_8wassetteNtB6_17ComponentRegistry10list_tools00B6_
FNDA:0,_RNCNvMCsaa7tasbM8Sl_8wassetteNtB4_17ComponentRegistry10list_tools0B4_
FNDA:0,_RNCNvMCsaa7tasbM8Sl_8wassetteNtB4_17ComponentRegistry20unregister_component0B4_
FNDA:0,_RNCNvMCsaa7tasbM8Sl_8wassetteNtB4_17ComponentRegistry23get_function_identifier0B4_
FNDA:0,_RNCNvMs0_Csaa7tasbM8Sl_8wassetteNtB7_16LifecycleManager44remove_storage_permission_by_uri_from_policy0B7_
FNDA:22,_RNCNvMNtCs2TM9D3hGgt_8wassette5testsNtB4_20TestLifecycleManager19load_test_component0B6_
FNDA:30,_RNCNvNtCs2TM9D3hGgt_8wassette5tests19create_test_manager0B5_
FNDA:24,_RNCNvNtCs2TM9D3hGgt_8wassette5tests23build_example_component0B5_
FNDA:30,_RINvMs_Cs2TM9D3hGgt_8wassetteNtB5_16LifecycleManager15new_with_policyRNtNtCsiKSG5X70Gj7_3std4path4PathEB5_
FNDA:30,_RINvMs_Cs2TM9D3hGgt_8wassetteNtB5_16LifecycleManager16new_with_clientsRNtNtCsiOgtAWxefNV_8tempfile3dir7TempDirEB5_
FNDA:30,_RINvMs_Cs2TM9D3hGgt_8wassetteNtB5_16LifecycleManager3newRNtNtCsiOgtAWxefNV_8tempfile3dir7TempDirEB5_
FNDA:30,_RNCINvMs_Cs2TM9D3hGgt_8wassetteNtB7_16LifecycleManager15new_with_policyRNtNtCsiKSG5X70Gj7_3std4path4PathE0B7_
FNDA:30,_RNCINvMs_Cs2TM9D3hGgt_8wassetteNtB7_16LifecycleManager16new_with_clientsRNtNtCsiOgtAWxefNV_8tempfile3dir7TempDirE0B7_
FNDA:30,_RNCINvMs_Cs2TM9D3hGgt_8wassetteNtB7_16LifecycleManager3newRNtNtCsiOgtAWxefNV_8tempfile3dir7TempDirE0B7_
FNDA:0,_RNCNCNCINvMs_Cs2TM9D3hGgt_8wassetteNtBb_16LifecycleManager15new_with_policyRNtNtCsiKSG5X70Gj7_3std4path4PathE000Bb_
FNDA:0,_RNCNCNCNvMs_Cs2TM9D3hGgt_8wassetteNtBa_16LifecycleManager14load_component000Ba_
FNDA:0,_RNCNCNCNvMs_Cs2TM9D3hGgt_8wassetteNtBa_16LifecycleManager22execute_component_call000Ba_
FNDA:0,_RNCNCNCNvMs_Cs2TM9D3hGgt_8wassetteNtBa_16LifecycleManager22execute_component_call00s0_0Ba_
FNDA:0,_RNCNCNCNvMs_Cs2TM9D3hGgt_8wassetteNtBa_16LifecycleManager22execute_component_call00s1_0Ba_
FNDA:0,_RNCNCNCNvMs_Cs2TM9D3hGgt_8wassetteNtBa_16LifecycleManager22execute_component_call00s2_0Ba_
FNDA:0,_RNCNCNCNvMs_Cs2TM9D3hGgt_8wassetteNtBa_16LifecycleManager22execute_component_call00s3_0Ba_
FNDA:0,_RNCNCNCNvMs_Cs2TM9D3hGgt_8wassetteNtBa_16LifecycleManager22execute_component_call00s4_0Ba_
FNDA:0,_RNCNCNCNvMs_Cs2TM9D3hGgt_8wassetteNtBa_16LifecycleManager22execute_component_call00s_0Ba_
FNDA:0,_RNCNCNCNvMs_Cs2TM9D3hGgt_8wassetteNtBa_16LifecycleManager25get_component_id_for_tool000Ba_
FNDA:0,_RNCNCNvCs2TM9D3hGgt_8wassette24load_components_parallel00B5_
FNDA:0,_RNCNCNvCs2TM9D3hGgt_8wassette25load_component_from_entry00B5_
FNDA:0,_RNCNCNvCs2TM9D3hGgt_8wassette25load_component_from_entry0s0_0B5_
FNDA:0,_RNCNCNvCs2TM9D3hGgt_8wassette25load_component_from_entry0s1_0B5_
FNDA:0,_RNCNCNvCs2TM9D3hGgt_8wassette25load_component_from_entry0s_0B5_
FNDA:30,_RNCNvCs2TM9D3hGgt_8wassette24load_components_parallel0B3_
FNDA:0,_RNCNvCs2TM9D3hGgt_8wassette25load_component_from_entry0B3_
FNDA:0,_RNCNvMCs2TM9D3hGgt_8wassetteNtB4_17ComponentRegistry20unregister_component0B4_
FNDA:0,_RNCNvMCs2TM9D3hGgt_8wassetteNtB4_17ComponentRegistry23get_function_identifier0B4_
FNDA:1,_RNCNvMs_Cs2TM9D3hGgt_8wassetteNtB6_16LifecycleManager13get_component0B6_
FNDA:2,_RNCNvMs_Cs2TM9D3hGgt_8wassetteNtB6_16LifecycleManager14load_component0B6_
FNDA:0,_RNCNvMs_Cs2TM9D3hGgt_8wassetteNtB6_16LifecycleManager15list_components0B6_
FNDA:0,_RNCNvMs_Cs2TM9D3hGgt_8wassetteNtB6_16LifecycleManager16unload_component0B6_
FNDA:0,_RNCNvMs_Cs2TM9D3hGgt_8wassetteNtB6_16LifecycleManager21remove_file_if_exists0B6_
FNDA:0,_RNCNvMs_Cs2TM9D3hGgt_8wassetteNtB6_16LifecycleManager22execute_component_call0B6_
FNDA:1,_RNCNvMs_Cs2TM9D3hGgt_8wassetteNtB6_16LifecycleManager25get_component_id_for_tool0B6_
FNDA:0,_RNCNvMs_Cs2TM9D3hGgt_8wassetteNtB6_16LifecycleManager28get_wasi_state_for_component0B6_
FNDA:30,_RNvCs2TM9D3hGgt_8wassette24load_components_parallel
FNDA:0,_RNvCs2TM9D3hGgt_8wassette25load_component_from_entry
FNDA:1,_RNvMCs2TM9D3hGgt_8wassetteNtB2_17ComponentRegistry13get_tool_info
FNDA:0,_RNvMCs2TM9D3hGgt_8wassetteNtB2_17ComponentRegistry14register_tools
FNDA:0,_RNvMCs2TM9D3hGgt_8wassetteNtB2_17ComponentRegistry20unregister_component
FNDA:0,_RNvMCs2TM9D3hGgt_8wassetteNtB2_17ComponentRegistry23get_function_identifier
FNDA:30,_RNvMCs2TM9D3hGgt_8wassetteNtB2_17ComponentRegistry3new
FNDA:1,_RNvMs_Cs2TM9D3hGgt_8wassetteNtB4_16LifecycleManager13get_component
FNDA:1,_RNvMs_Cs2TM9D3hGgt_8wassetteNtB4_16LifecycleManager14component_path
FNDA:2,_RNvMs_Cs2TM9D3hGgt_8wassetteNtB4_16LifecycleManager14load_component
FNDA:0,_RNvMs_Cs2TM9D3hGgt_8wassetteNtB4_16LifecycleManager15list_components
FNDA:0,_RNvMs_Cs2TM9D3hGgt_8wassetteNtB4_16LifecycleManager16unload_component
FNDA:0,_RNvMs_Cs2TM9D3hGgt_8wassetteNtB4_16LifecycleManager21remove_file_if_exists
FNDA:0,_RNvMs_Cs2TM9D3hGgt_8wassetteNtB4_16LifecycleManager22execute_component_call
FNDA:1,_RNvMs_Cs2TM9D3hGgt_8wassetteNtB4_16LifecycleManager25get_component_id_for_tool
FNDA:0,_RNvMs_Cs2TM9D3hGgt_8wassetteNtB4_16LifecycleManager28get_wasi_state_for_component
FNDA:0,_RNCNCNvMCs2TM9D3hGgt_8wassetteNtB6_17ComponentRegistry10list_tools00B6_
FNDA:0,_RNCNvMCs2TM9D3hGgt_8wassetteNtB4_17ComponentRegistry10list_tools0B4_
FNDA:0,_RNCNvMs0_Cs2TM9D3hGgt_8wassetteNtB7_16LifecycleManager32revoke_storage_permission_by_uri0B7_
FNDA:0,_RNCNvMs0_Cs2TM9D3hGgt_8wassetteNtB7_16LifecycleManager44remove_storage_permission_by_uri_from_policy0B7_
FNDA:0,_RNCNvMs_Cs2TM9D3hGgt_8wassetteNtB6_16LifecycleManager10list_tools0B6_
FNDA:0,_RNCNvMs_Cs2TM9D3hGgt_8wassetteNtB6_16LifecycleManager20get_component_schema0B6_
FNDA:0,_RNvMCs2TM9D3hGgt_8wassetteNtB2_17ComponentRegistry10list_tools
FNDA:0,_RNvMs0_Cs2TM9D3hGgt_8wassetteNtB5_16LifecycleManager32revoke_storage_permission_by_uri
FNDA:0,_RNvMs0_Cs2TM9D3hGgt_8wassetteNtB5_16LifecycleManager44remove_storage_permission_by_uri_from_policy
FNDA:0,_RNvMs_Cs2TM9D3hGgt_8wassetteNtB4_16LifecycleManager10list_tools
FNDA:0,_RNvMs_Cs2TM9D3hGgt_8wassetteNtB4_16LifecycleManager20get_component_schema
FNDA:22,_RNvMNtCs2TM9D3hGgt_8wassette5testsNtB2_20TestLifecycleManager19load_test_component
FNDA:30,_RNvNtCs2TM9D3hGgt_8wassette5tests19create_test_manager
FNDA:24,_RNvNtCs2TM9D3hGgt_8wassette5tests23build_example_component
FNDA:11,_RNvXs_NtCs2TM9D3hGgt_8wassette5testsNtB4_20TestLifecycleManagerNtNtNtCs66KPHxksi63_4core3ops5deref5Deref5deref
FNF:67
FNH:26
DA:65,38
DA:66,38
DA:67,38
DA:69,0
DA:70,0
DA:72,0
DA:73,0
DA:74,0
DA:75,0
DA:76,0
DA:77,0
DA:78,0
DA:79,0
DA:80,0
DA:81,0
DA:82,0
DA:83,0
DA:84,0
DA:86,0
DA:87,0
DA:88,0
DA:89,0
DA:91,0
DA:92,0
DA:93,0
DA:94,0
DA:95,0
DA:96,0
DA:98,0
DA:99,0
DA:100,0
DA:101,0
DA:102,0
DA:103,0
DA:104,0
DA:105,0
DA:106,0
DA:108,0
DA:109,0
DA:111,1
DA:112,1
DA:113,1
DA:115,0
DA:116,0
DA:117,0
DA:118,0
DA:119,0
DA:120,0
DA:148,38
DA:155,38
DA:159,38
DA:160,38
DA:161,38
DA:162,38
DA:163,38
DA:177,38
DA:181,38
DA:182,38
DA:183,38
DA:184,38
DA:185,38
DA:186,38
DA:201,0
DA:268,38
DA:275,2
DA:286,0
DA:327,2
DA:330,0
DA:331,0
DA:332,0
DA:333,0
DA:334,0
DA:335,0
DA:336,0
DA:338,0
DA:340,0
DA:341,0
DA:344,0
DA:345,0
DA:347,0
DA:348,0
DA:351,0
DA:352,0
DA:353,0
DA:354,0
DA:355,0
DA:356,0
DA:357,0
DA:360,0
DA:361,0
DA:367,0
DA:390,0
DA:395,1
DA:407,0
DA:414,1
DA:418,0
DA:420,0
DA:424,1
DA:426,1
DA:430,0
DA:432,0
DA:436,0
DA:443,0
DA:445,1
DA:446,1
DA:447,1
DA:449,0
DA:450,0
DA:451,0
DA:452,0
DA:453,0
DA:455,0
DA:456,0
DA:457,0
DA:458,0
DA:459,0
DA:461,0
DA:462,0
DA:464,0
DA:465,0
DA:469,0
DA:470,0
DA:471,0
DA:472,0
DA:473,0
DA:474,0
DA:478,0
DA:496,0
DA:507,0
DA:511,0
DA:512,0
DA:513,0
DA:517,0
DA:521,0
DA:522,0
DA:523,0
DA:527,0
DA:531,0
DA:534,0
DA:552,0
DA:557,38
DA:558,38
DA:559,38
DA:560,38
DA:561,38
DA:562,38
DA:563,38
DA:565,38
DA:566,0
DA:567,0
DA:568,0
DA:569,0
DA:570,0
DA:571,0
DA:572,0
DA:574,0
DA:575,0
DA:578,38
DA:579,38
DA:581,38
DA:582,0
DA:583,0
DA:584,0
DA:588,38
DA:589,38
DA:594,1
DA:595,1
DA:596,1
DA:597,1
DA:598,1
DA:618,1
DA:621,0
DA:622,0
DA:623,0
DA:624,0
DA:625,0
DA:626,0
DA:627,0
DA:628,0
DA:630,0
DA:631,0
DA:632,0
DA:633,0
DA:634,0
DA:635,0
DA:636,0
DA:639,0
DA:640,0
DA:641,0
DA:642,0
DA:643,0
DA:644,0
DA:645,0
DA:646,0
DA:647,0
DA:648,0
DA:649,0
DA:650,0
DA:651,0
DA:652,0
DA:653,0
DA:654,0
DA:655,0
DA:656,0
DA:657,0
DA:658,0
DA:659,0
DA:660,0
DA:661,0
DA:662,0
DA:663,0
DA:664,0
DA:665,0
DA:666,0
DA:667,0
DA:668,0
DA:669,0
DA:670,0
DA:671,0
DA:672,0
DA:673,0
DA:674,0
DA:675,0
DA:676,0
DA:677,0
DA:678,0
DA:700,22
DA:701,22
DA:703,0
DA:704,0
DA:705,0
DA:707,0
DA:708,22
DA:714,11
DA:715,11
DA:716,11
DA:719,30
DA:720,30
DA:721,30
DA:722,30
DA:723,30
DA:724,30
DA:725,30
DA:726,30
DA:728,24
DA:729,24
DA:730,24
DA:731,24
DA:732,24
DA:734,24
DA:735,24
DA:736,24
DA:737,24
DA:738,24
DA:739,24
DA:741,24
DA:742,24
DA:743,0
DA:744,0
DA:746,0
DA:747,0
DA:748,0
DA:749,0
DA:751,0
DA:753,0
DA:754,24
BRF:0
BRH:0
LF:295
LH:88
end_of_record
SF:/home/runner/work/wassette/wassette/crates/wassette/src/loader.rs
FN:63,_RNCNvMs_NtCsaa7tasbM8Sl_8wassette6loaderNtB6_18DownloadedResource2id0B8_
FN:68,_RNCNvMs_NtCsaa7tasbM8Sl_8wassette6loaderNtB6_18DownloadedResource2ids0_0B8_
FN:69,_RNCNvMs_NtCsaa7tasbM8Sl_8wassette6loaderNtB6_18DownloadedResource2ids1_0B8_
FN:64,_RNCNvMs_NtCsaa7tasbM8Sl_8wassette6loaderNtB6_18DownloadedResource2ids_0B8_
FN:34,_RINvMs_NtCs2TM9D3hGgt_8wassette6loaderNtB5_18DownloadedResource13new_temp_fileNtNtCs8Ty2CzGA6U3_5alloc6string6StringEB7_
FN:34,_RINvMs_NtCs2TM9D3hGgt_8wassette6loaderNtB5_18DownloadedResource13new_temp_fileRNtNtCs8Ty2CzGA6U3_5alloc6string6StringEB7_
FN:34,_RINvMs_NtCs2TM9D3hGgt_8wassette6loaderNtB5_18DownloadedResource13new_temp_fileReEB7_
FN:72,_RINvMs_NtCs2TM9D3hGgt_8wassette6loaderNtB5_18DownloadedResource7copy_toRNtNtCsiKSG5X70Gj7_3std4path7PathBufEB7_
FN:285,_RINvNtCs2TM9D3hGgt_8wassette6loader13load_resourceNtB2_14PolicyResourceEB4_
FN:285,_RINvNtCs2TM9D3hGgt_8wassette6loader13load_resourceNtB2_17ComponentResourceEB4_
FN:37,_RNCINvMs_NtCs2TM9D3hGgt_8wassette6loaderNtB7_18DownloadedResource13new_temp_fileNtNtCs8Ty2CzGA6U3_5alloc6string6StringE0B9_
FN:37,_RNCINvMs_NtCs2TM9D3hGgt_8wassette6loaderNtB7_18DownloadedResource13new_temp_fileRNtNtCs8Ty2CzGA6U3_5alloc6string6StringE0B9_
FN:37,_RNCINvMs_NtCs2TM9D3hGgt_8wassette6loaderNtB7_18DownloadedResource13new_temp_fileReE0B9_
FN:72,_RNCINvMs_NtCs2TM9D3hGgt_8wassette6loaderNtB7_18DownloadedResource7copy_toRNtNtCsiKSG5X70Gj7_3std4path7PathBufE0B9_
FN:289,_RNCINvNtCs2TM9D3hGgt_8wassette6loader13load_resourceNtB4_14PolicyResourceE0B6_
FN:289,_RNCINvNtCs2TM9D3hGgt_8wassette6loader13load_resourceNtB4_17ComponentResourceE0B6_
FN:103,_RNCNCINvMs_NtCs2TM9D3hGgt_8wassette6loaderNtB9_18DownloadedResource7copy_toRNtNtCsiKSG5X70Gj7_3std4path7PathBufE00Bb_
FN:121,_RNCNCINvMs_NtCs2TM9D3hGgt_8wassette6loaderNtB9_18DownloadedResource7copy_toRNtNtCsiKSG5X70Gj7_3std4path7PathBufE0s_0Bb_
FN:207,_RNCNCNvXs0_NtCs2TM9D3hGgt_8wassette6loaderNtB9_17ComponentResourceNtB9_8Loadable8from_url00Bb_
FN:255,_RNCNCNvXs1_NtCs2TM9D3hGgt_8wassette6loaderNtB9_14PolicyResourceNtB9_8Loadable8from_url00Bb_
FN:63,_RNCNvMs_NtCs2TM9D3hGgt_8wassette6loaderNtB6_18DownloadedResource2id0B8_
FN:68,_RNCNvMs_NtCs2TM9D3hGgt_8wassette6loaderNtB6_18DownloadedResource2ids0_0B8_
FN:69,_RNCNvMs_NtCs2TM9D3hGgt_8wassette6loaderNtB6_18DownloadedResource2ids1_0B8_
FN:64,_RNCNvMs_NtCs2TM9D3hGgt_8wassette6loaderNtB6_18DownloadedResource2ids_0B8_
FN:150,_RNCNvXs0_NtCs2TM9D3hGgt_8wassette6loaderNtB7_17ComponentResourceNtB7_8Loadable15from_local_file0B9_
FN:173,_RNCNvXs0_NtCs2TM9D3hGgt_8wassette6loaderNtB7_17ComponentResourceNtB7_8Loadable18from_oci_reference0B9_
FN:192,_RNCNvXs0_NtCs2TM9D3hGgt_8wassette6loaderNtB7_17ComponentResourceNtB7_8Loadable8from_url0B9_
FN:231,_RNCNvXs1_NtCs2TM9D3hGgt_8wassette6loaderNtB7_14PolicyResourceNtB7_8Loadable15from_local_file0B9_
FN:247,_RNCNvXs1_NtCs2TM9D3hGgt_8wassette6loaderNtB7_14PolicyResourceNtB7_8Loadable18from_oci_reference0B9_
FN:251,_RNCNvXs1_NtCs2TM9D3hGgt_8wassette6loaderNtB7_14PolicyResourceNtB7_8Loadable8from_url0B9_
FN:46,_RNvMs_NtCs2TM9D3hGgt_8wassette6loaderNtB4_18DownloadedResource2id
FN:20,_RNvXNtCs2TM9D3hGgt_8wassette6loaderNtB2_18DownloadedResourceINtNtCs66KPHxksi63_4core7convert5AsRefNtNtCsiKSG5X70Gj7_3std4path4PathE6as_ref
FN:150,_RNvXs0_NtCs2TM9D3hGgt_8wassette6loaderNtB5_17ComponentResourceNtB5_8Loadable15from_local_file
FN:170,_RNvXs0_NtCs2TM9D3hGgt_8wassette6loaderNtB5_17ComponentResourceNtB5_8Loadable18from_oci_reference
FN:192,_RNvXs0_NtCs2TM9D3hGgt_8wassette6loaderNtB5_17ComponentResourceNtB5_8Loadable8from_url
FN:231,_RNvXs1_NtCs2TM9D3hGgt_8wassette6loaderNtB5_14PolicyResourceNtB5_8Loadable15from_local_file
FN:244,_RNvXs1_NtCs2TM9D3hGgt_8wassette6loaderNtB5_14PolicyResourceNtB5_8Loadable18from_oci_reference
FN:251,_RNvXs1_NtCs2TM9D3hGgt_8wassette6loaderNtB5_14PolicyResourceNtB5_8Loadable8from_url
FNDA:0,_RNCNvMs_NtCsaa7tasbM8Sl_8wassette6loaderNtB6_18DownloadedResource2id0B8_
FNDA:0,_RNCNvMs_NtCsaa7tasbM8Sl_8wassette6loaderNtB6_18DownloadedResource2ids0_0B8_
FNDA:0,_RNCNvMs_NtCsaa7tasbM8Sl_8wassette6loaderNtB6_18DownloadedResource2ids1_0B8_
FNDA:0,_RNCNvMs_NtCsaa7tasbM8Sl_8wassette6loaderNtB6_18DownloadedResource2ids_0B8_
FNDA:0,_RINvMs_NtCs2TM9D3hGgt_8wassette6loaderNtB5_18DownloadedResource13new_temp_fileNtNtCs8Ty2CzGA6U3_5alloc6string6StringEB7_
FNDA:0,_RINvMs_NtCs2TM9D3hGgt_8wassette6loaderNtB5_18DownloadedResource13new_temp_fileRNtNtCs8Ty2CzGA6U3_5alloc6string6StringEB7_
FNDA:0,_RINvMs_NtCs2TM9D3hGgt_8wassette6loaderNtB5_18DownloadedResource13new_temp_fileReEB7_
FNDA:0,_RINvMs_NtCs2TM9D3hGgt_8wassette6loaderNtB5_18DownloadedResource7copy_toRNtNtCsiKSG5X70Gj7_3std4path7PathBufEB7_
FNDA:0,_RINvNtCs2TM9D3hGgt_8wassette6loader13load_resourceNtB2_14PolicyResourceEB4_
FNDA:2,_RINvNtCs2TM9D3hGgt_8wassette6loader13load_resourceNtB2_17ComponentResourceEB4_
FNDA:0,_RNCINvMs_NtCs2TM9D3hGgt_8wassette6loaderNtB7_18DownloadedResource13new_temp_fileNtNtCs8Ty2CzGA6U3_5alloc6string6StringE0B9_
FNDA:0,_RNCINvMs_NtCs2TM9D3hGgt_8wassette6loaderNtB7_18DownloadedResource13new_temp_fileRNtNtCs8Ty2CzGA6U3_5alloc6string6StringE0B9_
FNDA:0,_RNCINvMs_NtCs2TM9D3hGgt_8wassette6loaderNtB7_18DownloadedResource13new_temp_fileReE0B9_
FNDA:0,_RNCINvMs_NtCs2TM9D3hGgt_8wassette6loaderNtB7_18DownloadedResource7copy_toRNtNtCsiKSG5X70Gj7_3std4path7PathBufE0B9_
FNDA:0,_RNCINvNtCs2TM9D3hGgt_8wassette6loader13load_resourceNtB4_14PolicyResourceE0B6_
FNDA:2,_RNCINvNtCs2TM9D3hGgt_8wassette6loader13load_resourceNtB4_17ComponentResourceE0B6_
FNDA:0,_RNCNCINvMs_NtCs2TM9D3hGgt_8wassette6loaderNtB9_18DownloadedResource7copy_toRNtNtCsiKSG5X70Gj7_3std4path7PathBufE00Bb_
FNDA:0,_RNCNCINvMs_NtCs2TM9D3hGgt_8wassette6loaderNtB9_18DownloadedResource7copy_toRNtNtCsiKSG5X70Gj7_3std4path7PathBufE0s_0Bb_
FNDA:0,_RNCNCNvXs0_NtCs2TM9D3hGgt_8wassette6loaderNtB9_17ComponentResourceNtB9_8Loadable8from_url00Bb_
FNDA:0,_RNCNCNvXs1_NtCs2TM9D3hGgt_8wassette6loaderNtB9_14PolicyResourceNtB9_8Loadable8from_url00Bb_
FNDA:0,_RNCNvMs_NtCs2TM9D3hGgt_8wassette6loaderNtB6_18DownloadedResource2id0B8_
FNDA:0,_RNCNvMs_NtCs2TM9D3hGgt_8wassette6loaderNtB6_18DownloadedResource2ids0_0B8_
FNDA:0,_RNCNvMs_NtCs2TM9D3hGgt_8wassette6loaderNtB6_18DownloadedResource2ids1_0B8_
FNDA:0,_RNCNvMs_NtCs2TM9D3hGgt_8wassette6loaderNtB6_18DownloadedResource2ids_0B8_
FNDA:0,_RNCNvXs0_NtCs2TM9D3hGgt_8wassette6loaderNtB7_17ComponentResourceNtB7_8Loadable15from_local_file0B9_
FNDA:0,_RNCNvXs0_NtCs2TM9D3hGgt_8wassette6loaderNtB7_17ComponentResourceNtB7_8Loadable18from_oci_reference0B9_
FNDA:0,_RNCNvXs0_NtCs2TM9D3hGgt_8wassette6loaderNtB7_17ComponentResourceNtB7_8Loadable8from_url0B9_
FNDA:0,_RNCNvXs1_NtCs2TM9D3hGgt_8wassette6loaderNtB7_14PolicyResourceNtB7_8Loadable15from_local_file0B9_
FNDA:0,_RNCNvXs1_NtCs2TM9D3hGgt_8wassette6loaderNtB7_14PolicyResourceNtB7_8Loadable18from_oci_reference0B9_
FNDA:0,_RNCNvXs1_NtCs2TM9D3hGgt_8wassette6loaderNtB7_14PolicyResourceNtB7_8Loadable8from_url0B9_
FNDA:0,_RNvMs_NtCs2TM9D3hGgt_8wassette6loaderNtB4_18DownloadedResource2id
FNDA:0,_RNvXNtCs2TM9D3hGgt_8wassette6loaderNtB2_18DownloadedResourceINtNtCs66KPHxksi63_4core7convert5AsRefNtNtCsiKSG5X70Gj7_3std4path4PathE6as_ref
FNDA:0,_RNvXs0_NtCs2TM9D3hGgt_8wassette6loaderNtB5_17ComponentResourceNtB5_8Loadable15from_local_file
FNDA:0,_RNvXs0_NtCs2TM9D3hGgt_8wassette6loaderNtB5_17ComponentResourceNtB5_8Loadable18from_oci_reference
FNDA:0,_RNvXs0_NtCs2TM9D3hGgt_8wassette6loaderNtB5_17ComponentResourceNtB5_8Loadable8from_url
FNDA:0,_RNvXs1_NtCs2TM9D3hGgt_8wassette6loaderNtB5_14PolicyResourceNtB5_8Loadable15from_local_file
FNDA:0,_RNvXs1_NtCs2TM9D3hGgt_8wassette6loaderNtB5_14PolicyResourceNtB5_8Loadable18from_oci_reference
FNDA:0,_RNvXs1_NtCs2TM9D3hGgt_8wassette6loaderNtB5_14PolicyResourceNtB5_8Loadable8from_url
FNF:28
FNH:2
DA:20,0
DA:21,0
DA:22,0
DA:23,0
DA:25,0
DA:34,0
DA:35,0
DA:36,0
DA:37,0
DA:38,0
DA:39,0
DA:40,0
DA:41,0
DA:42,0
DA:43,0
DA:44,0
DA:46,0
DA:62,0
DA:63,0
DA:64,0
DA:67,0
DA:68,0
DA:69,0
DA:70,0
DA:72,0
DA:73,0
DA:74,0
DA:75,0
DA:76,0
DA:77,0
DA:79,0
DA:80,0
DA:81,0
DA:82,0
DA:83,0
DA:84,0
DA:86,0
DA:88,0
DA:89,0
DA:90,0
DA:91,0
DA:93,0
DA:94,0
DA:95,0
DA:98,0
DA:99,0
DA:100,0
DA:101,0
DA:103,0
DA:104,0
DA:105,0
DA:106,0
DA:107,0
DA:109,0
DA:110,0
DA:111,0
DA:112,0
DA:114,0
DA:116,0
DA:118,0
DA:121,0
DA:122,0
DA:123,0
DA:126,0
DA:127,0
DA:150,0
DA:151,0
DA:152,0
DA:153,0
DA:155,0
DA:156,0
DA:157,0
DA:159,0
DA:160,0
DA:161,0
DA:162,0
DA:165,0
DA:167,0
DA:168,0
DA:170,0
DA:171,0
DA:172,0
DA:173,0
DA:174,0
DA:175,0
DA:176,0
DA:177,0
DA:178,0
DA:179,0
DA:180,0
DA:181,0
DA:182,0
DA:183,0
DA:184,0
DA:186,0
DA:187,0
DA:188,0
DA:189,0
DA:190,0
DA:192,0
DA:193,0
DA:194,0
DA:195,0
DA:196,0
DA:197,0
DA:198,0
DA:203,0
DA:204,0
DA:205,0
DA:206,0
DA:207,0
DA:208,0
DA:209,0
DA:210,0
DA:211,0
DA:212,0
DA:213,0
DA:214,0
DA:215,0
DA:216,0
DA:217,0
DA:218,0
DA:219,0
DA:220,0
DA:221,0
DA:231,0
DA:232,0
DA:233,0
DA:234,0
DA:236,0
DA:237,0
DA:239,0
DA:242,0
DA:244,0
DA:245,0
DA:246,0
DA:247,0
DA:248,0
DA:249,0
DA:251,0
DA:252,0
DA:253,0
DA:254,0
DA:255,0
DA:256,0
DA:257,0
DA:258,0
DA:260,0
DA:261,0
DA:262,0
DA:264,0
DA:265,0
DA:266,0
DA:267,0
DA:269,0
DA:271,0
DA:273,0
DA:274,0
DA:276,0
DA:277,0
DA:278,0
DA:280,0
DA:281,0
DA:285,2
DA:286,2
DA:287,2
DA:288,2
DA:289,2
DA:290,2
DA:291,2
DA:292,2
DA:295,2
DA:297,0
DA:298,0
DA:299,0
DA:300,0
DA:301,0
DA:303,2
BRF:0
BRH:0
LF:196
LH:11
end_of_record
SF:/home/runner/work/wassette/wassette/crates/wassette/src/policy_internal.rs
FN:206,_RNCNvMNtCsaa7tasbM8Sl_8wassette15policy_internalNtB6_16LifecycleManager16grant_permission0CsfVGYiQvi1X6_10mcp_server
FN:492,_RNCNvMNtCsaa7tasbM8Sl_8wassette15policy_internalNtB6_16LifecycleManager16reset_permission0CsfVGYiQvi1X6_10mcp_server
FN:467,_RNCNvMNtCsaa7tasbM8Sl_8wassette15policy_internalNtB6_16LifecycleManager17revoke_permission0CsfVGYiQvi1X6_10mcp_server
FN:410,_RNCNvMNtCsaa7tasbM8Sl_8wassette15policy_internalNtB6_16LifecycleManager21save_component_policy0CsfVGYiQvi1X6_10mcp_server
FN:422,_RNCNvMNtCsaa7tasbM8Sl_8wassette15policy_internalNtB6_16LifecycleManager22update_policy_registry0CsfVGYiQvi1X6_10mcp_server
FN:191,_RNCNvMNtCsaa7tasbM8Sl_8wassette15policy_internalNtB6_16LifecycleManager23cleanup_policy_registry0CsfVGYiQvi1X6_10mcp_server
FN:292,_RNCNvMNtCsaa7tasbM8Sl_8wassette15policy_internalNtB6_16LifecycleManager31load_or_create_component_policy0CsfVGYiQvi1X6_10mcp_server
FN:76,_RNvMNtCsaa7tasbM8Sl_8wassette15policy_internalNtB4_16LifecycleManager13attach_policy
FN:117,_RNvMNtCsaa7tasbM8Sl_8wassette15policy_internalNtB4_16LifecycleManager13detach_policy
FN:141,_RNvMNtCsaa7tasbM8Sl_8wassette15policy_internalNtB4_16LifecycleManager15get_policy_info
FN:201,_RNvMNtCsaa7tasbM8Sl_8wassette15policy_internalNtB4_16LifecycleManager16grant_permission
FN:492,_RNvMNtCsaa7tasbM8Sl_8wassette15policy_internalNtB4_16LifecycleManager16reset_permission
FN:462,_RNvMNtCsaa7tasbM8Sl_8wassette15policy_internalNtB4_16LifecycleManager17revoke_permission
FN:230,_RNvMNtCsaa7tasbM8Sl_8wassette15policy_internalNtB4_16LifecycleManager21parse_permission_rule
FN:406,_RNvMNtCsaa7tasbM8Sl_8wassette15policy_internalNtB4_16LifecycleManager21save_component_policy
FN:418,_RNvMNtCsaa7tasbM8Sl_8wassette15policy_internalNtB4_16LifecycleManager22update_policy_registry
FN:191,_RNvMNtCsaa7tasbM8Sl_8wassette15policy_internalNtB4_16LifecycleManager23cleanup_policy_registry
FN:434,_RNvMNtCsaa7tasbM8Sl_8wassette15policy_internalNtB4_16LifecycleManager24validate_permission_rule
FN:177,_RNvMNtCsaa7tasbM8Sl_8wassette15policy_internalNtB4_16LifecycleManager25get_component_policy_path
FN:181,_RNvMNtCsaa7tasbM8Sl_8wassette15policy_internalNtB4_16LifecycleManager27get_component_metadata_path
FN:311,_RNvMNtCsaa7tasbM8Sl_8wassette15policy_internalNtB4_16LifecycleManager29add_permission_rule_to_policy
FN:186,_RNvMNtCsaa7tasbM8Sl_8wassette15policy_internalNtB4_16LifecycleManager30create_default_policy_template
FN:289,_RNvMNtCsaa7tasbM8Sl_8wassette15policy_internalNtB4_16LifecycleManager31load_or_create_component_policy
FN:333,_RNvMNtCsaa7tasbM8Sl_8wassette15policy_internalNtB4_16LifecycleManager32add_network_permission_to_policy
FN:354,_RNvMNtCsaa7tasbM8Sl_8wassette15policy_internalNtB4_16LifecycleManager32add_storage_permission_to_policy
FN:515,_RNvMNtCsaa7tasbM8Sl_8wassette15policy_internalNtB4_16LifecycleManager34remove_permission_rule_from_policy
FN:385,_RNvMNtCsaa7tasbM8Sl_8wassette15policy_internalNtB4_16LifecycleManager36add_environment_permission_to_policy
FN:537,_RNvMNtCsaa7tasbM8Sl_8wassette15policy_internalNtB4_16LifecycleManager37remove_network_permission_from_policy
FN:555,_RNvMNtCsaa7tasbM8Sl_8wassette15policy_internalNtB4_16LifecycleManager37remove_storage_permission_from_policy
FN:573,_RNvMNtCsaa7tasbM8Sl_8wassette15policy_internalNtB4_16LifecycleManager41remove_environment_permission_from_policy
FN:257,_RNCNCNvMNtCsaa7tasbM8Sl_8wassette15policy_internalNtB8_16LifecycleManager21parse_permission_rules4_00B8_
FN:239,_RNCNvMNtCsaa7tasbM8Sl_8wassette15policy_internalNtB6_16LifecycleManager21parse_permission_rule0B6_
FN:248,_RNCNvMNtCsaa7tasbM8Sl_8wassette15policy_internalNtB6_16LifecycleManager21parse_permission_rules0_0B6_
FN:249,_RNCNvMNtCsaa7tasbM8Sl_8wassette15policy_internalNtB6_16LifecycleManager21parse_permission_rules1_0B6_
FN:252,_RNCNvMNtCsaa7tasbM8Sl_8wassette15policy_internalNtB6_16LifecycleManager21parse_permission_rules2_0B6_
FN:253,_RNCNvMNtCsaa7tasbM8Sl_8wassette15policy_internalNtB6_16LifecycleManager21parse_permission_rules3_0B6_
FN:257,_RNCNvMNtCsaa7tasbM8Sl_8wassette15policy_internalNtB6_16LifecycleManager21parse_permission_rules4_0B6_
FN:258,_RNCNvMNtCsaa7tasbM8Sl_8wassette15policy_internalNtB6_16LifecycleManager21parse_permission_rules5_0B6_
FN:273,_RNCNvMNtCsaa7tasbM8Sl_8wassette15policy_internalNtB6_16LifecycleManager21parse_permission_rules6_0B6_
FN:274,_RNCNvMNtCsaa7tasbM8Sl_8wassette15policy_internalNtB6_16LifecycleManager21parse_permission_rules7_0B6_
FN:240,_RNCNvMNtCsaa7tasbM8Sl_8wassette15policy_internalNtB6_16LifecycleManager21parse_permission_rules_0B6_
FN:367,_RNCNvMNtCsaa7tasbM8Sl_8wassette15policy_internalNtB6_16LifecycleManager32add_storage_permission_to_policy0B6_
FN:544,_RNCNvMNtCsaa7tasbM8Sl_8wassette15policy_internalNtB6_16LifecycleManager37remove_network_permission_from_policy0B6_
FN:562,_RNCNvMNtCsaa7tasbM8Sl_8wassette15policy_internalNtB6_16LifecycleManager37remove_storage_permission_from_policy0B6_
FN:580,_RNCNvMNtCsaa7tasbM8Sl_8wassette15policy_internalNtB6_16LifecycleManager41remove_environment_permission_from_policy0B6_
FN:826,_RNCNCNvNtNtCs2TM9D3hGgt_8wassette15policy_internal5testss_42test_grant_permission_duplicate_prevention00B9_
FN:838,_RNCNCNvNtNtCs2TM9D3hGgt_8wassette15policy_internal5testss_42test_grant_permission_duplicate_prevention0s_0B9_
FN:673,_RNCNvNtNtCs2TM9D3hGgt_8wassette15policy_internal5testss_29test_grant_permission_network0B7_
FN:695,_RNCNvNtNtCs2TM9D3hGgt_8wassette15policy_internal5testss_29test_grant_permission_storage0B7_
FN:597,_RNCNvNtNtCs2TM9D3hGgt_8wassette15policy_internal5testss_37test_policy_attachment_and_detachment0B7_
FN:990,_RNCNvNtNtCs2TM9D3hGgt_8wassette15policy_internal5testss_40test_grant_permission_to_existing_policy0B7_
FN:883,_RNCNvNtNtCs2TM9D3hGgt_8wassette15policy_internal5testss_41test_grant_permission_component_not_found0B7_
FN:719,_RNCNvNtNtCs2TM9D3hGgt_8wassette15policy_internal5testss_42test_grant_permission_duplicate_prevention0B7_
FN:942,_RNCNvNtNtCs2TM9D3hGgt_8wassette15policy_internal5testss_42test_grant_permission_multiple_permissions0B7_
FN:648,_RNCNvNtNtCs2TM9D3hGgt_8wassette15policy_internal5testss_42test_policy_attachment_component_not_found0B7_
FN:922,_RNCNvNtNtCs2TM9D3hGgt_8wassette15policy_internal5testss_43test_grant_permission_validation_empty_host0B7_
FN:851,_RNCNvNtNtCs2TM9D3hGgt_8wassette15policy_internal5testss_44test_grant_permission_storage_access_merging0B7_
FN:902,_RNCNvNtNtCs2TM9D3hGgt_8wassette15policy_internal5testss_45test_grant_permission_missing_required_fields0B7_
FN:970,_RNCNvNtNtCs2TM9D3hGgt_8wassette15policy_internal5testss_45test_grant_permission_updates_policy_registry0B7_
FN:153,_RNCNCNvMNtCs2TM9D3hGgt_8wassette15policy_internalNtB8_16LifecycleManager15get_policy_info00B8_
FN:166,_RNCNCNvMNtCs2TM9D3hGgt_8wassette15policy_internalNtB8_16LifecycleManager15get_policy_info0s_0B8_
FN:257,_RNCNCNvMNtCs2TM9D3hGgt_8wassette15policy_internalNtB8_16LifecycleManager21parse_permission_rules4_00B8_
FN:76,_RNCNvMNtCs2TM9D3hGgt_8wassette15policy_internalNtB6_16LifecycleManager13attach_policy0B6_
FN:117,_RNCNvMNtCs2TM9D3hGgt_8wassette15policy_internalNtB6_16LifecycleManager13detach_policy0B6_
FN:141,_RNCNvMNtCs2TM9D3hGgt_8wassette15policy_internalNtB6_16LifecycleManager15get_policy_info0B6_
FN:206,_RNCNvMNtCs2TM9D3hGgt_8wassette15policy_internalNtB6_16LifecycleManager16grant_permission0B6_
FN:492,_RNCNvMNtCs2TM9D3hGgt_8wassette15policy_internalNtB6_16LifecycleManager16reset_permission0B6_
FN:467,_RNCNvMNtCs2TM9D3hGgt_8wassette15policy_internalNtB6_16LifecycleManager17revoke_permission0B6_
FN:239,_RNCNvMNtCs2TM9D3hGgt_8wassette15policy_internalNtB6_16LifecycleManager21parse_permission_rule0B6_
FN:248,_RNCNvMNtCs2TM9D3hGgt_8wassette15policy_internalNtB6_16LifecycleManager21parse_permission_rules0_0B6_
FN:249,_RNCNvMNtCs2TM9D3hGgt_8wassette15policy_internalNtB6_16LifecycleManager21parse_permission_rules1_0B6_
FN:252,_RNCNvMNtCs2TM9D3hGgt_8wassette15policy_internalNtB6_16LifecycleManager21parse_permission_rules2_0B6_
FN:253,_RNCNvMNtCs2TM9D3hGgt_8wassette15policy_internalNtB6_16LifecycleManager21parse_permission_rules3_0B6_
FN:257,_RNCNvMNtCs2TM9D3hGgt_8wassette15policy_internalNtB6_16LifecycleManager21parse_permission_rules4_0B6_
FN:258,_RNCNvMNtCs2TM9D3hGgt_8wassette15policy_internalNtB6_16LifecycleManager21parse_permission_rules5_0B6_
FN:273,_RNCNvMNtCs2TM9D3hGgt_8wassette15policy_internalNtB6_16LifecycleManager21parse_permission_rules6_0B6_
FN:274,_RNCNvMNtCs2TM9D3hGgt_8wassette15policy_internalNtB6_16LifecycleManager21parse_permission_rules7_0B6_
FN:240,_RNCNvMNtCs2TM9D3hGgt_8wassette15policy_internalNtB6_16LifecycleManager21parse_permission_rules_0B6_
FN:410,_RNCNvMNtCs2TM9D3hGgt_8wassette15policy_internalNtB6_16LifecycleManager21save_component_policy0B6_
FN:422,_RNCNvMNtCs2TM9D3hGgt_8wassette15policy_internalNtB6_16LifecycleManager22update_policy_registry0B6_
FN:191,_RNCNvMNtCs2TM9D3hGgt_8wassette15policy_internalNtB6_16LifecycleManager23cleanup_policy_registry0B6_
FN:292,_RNCNvMNtCs2TM9D3hGgt_8wassette15policy_internalNtB6_16LifecycleManager31load_or_create_component_policy0B6_
FN:367,_RNCNvMNtCs2TM9D3hGgt_8wassette15policy_internalNtB6_16LifecycleManager32add_storage_permission_to_policy0B6_
FN:544,_RNCNvMNtCs2TM9D3hGgt_8wassette15policy_internalNtB6_16LifecycleManager37remove_network_permission_from_policy0B6_
FN:562,_RNCNvMNtCs2TM9D3hGgt_8wassette15policy_internalNtB6_16LifecycleManager37remove_storage_permission_from_policy0B6_
FN:580,_RNCNvMNtCs2TM9D3hGgt_8wassette15policy_internalNtB6_16LifecycleManager41remove_environment_permission_from_policy0B6_
FN:76,_RNvMNtCs2TM9D3hGgt_8wassette15policy_internalNtB4_16LifecycleManager13attach_policy
FN:117,_RNvMNtCs2TM9D3hGgt_8wassette15policy_internalNtB4_16LifecycleManager13detach_policy
FN:141,_RNvMNtCs2TM9D3hGgt_8wassette15policy_internalNtB4_16LifecycleManager15get_policy_info
FN:201,_RNvMNtCs2TM9D3hGgt_8wassette15policy_internalNtB4_16LifecycleManager16grant_permission
FN:492,_RNvMNtCs2TM9D3hGgt_8wassette15policy_internalNtB4_16LifecycleManager16reset_permission
FN:462,_RNvMNtCs2TM9D3hGgt_8wassette15policy_internalNtB4_16LifecycleManager17revoke_permission
FN:230,_RNvMNtCs2TM9D3hGgt_8wassette15policy_internalNtB4_16LifecycleManager21parse_permission_rule
FN:406,_RNvMNtCs2TM9D3hGgt_8wassette15policy_internalNtB4_16LifecycleManager21save_component_policy
FN:418,_RNvMNtCs2TM9D3hGgt_8wassette15policy_internalNtB4_16LifecycleManager22update_policy_registry
FN:191,_RNvMNtCs2TM9D3hGgt_8wassette15policy_internalNtB4_16LifecycleManager23cleanup_policy_registry
FN:434,_RNvMNtCs2TM9D3hGgt_8wassette15policy_internalNtB4_16LifecycleManager24validate_permission_rule
FN:177,_RNvMNtCs2TM9D3hGgt_8wassette15policy_internalNtB4_16LifecycleManager25get_component_policy_path
FN:181,_RNvMNtCs2TM9D3hGgt_8wassette15policy_internalNtB4_16LifecycleManager27get_component_metadata_path
FN:311,_RNvMNtCs2TM9D3hGgt_8wassette15policy_internalNtB4_16LifecycleManager29add_permission_rule_to_policy
FN:186,_RNvMNtCs2TM9D3hGgt_8wassette15policy_internalNtB4_16LifecycleManager30create_default_policy_template
FN:289,_RNvMNtCs2TM9D3hGgt_8wassette15policy_internalNtB4_16LifecycleManager31load_or_create_component_policy
FN:333,_RNvMNtCs2TM9D3hGgt_8wassette15policy_internalNtB4_16LifecycleManager32add_network_permission_to_policy
FN:354,_RNvMNtCs2TM9D3hGgt_8wassette15policy_internalNtB4_16LifecycleManager32add_storage_permission_to_policy
FN:515,_RNvMNtCs2TM9D3hGgt_8wassette15policy_internalNtB4_16LifecycleManager34remove_permission_rule_from_policy
FN:385,_RNvMNtCs2TM9D3hGgt_8wassette15policy_internalNtB4_16LifecycleManager36add_environment_permission_to_policy
FN:537,_RNvMNtCs2TM9D3hGgt_8wassette15policy_internalNtB4_16LifecycleManager37remove_network_permission_from_policy
FN:555,_RNvMNtCs2TM9D3hGgt_8wassette15policy_internalNtB4_16LifecycleManager37remove_storage_permission_from_policy
FN:573,_RNvMNtCs2TM9D3hGgt_8wassette15policy_internalNtB4_16LifecycleManager41remove_environment_permission_from_policy
FN:1050,_RNvNtNtCs2TM9D3hGgt_8wassette15policy_internal5testss_25test_permission_type_enum
FN:673,_RNvNtNtCs2TM9D3hGgt_8wassette15policy_internal5testss_29test_grant_permission_network
FN:695,_RNvNtNtCs2TM9D3hGgt_8wassette15policy_internal5testss_29test_grant_permission_storage
FN:1093,_RNvNtNtCs2TM9D3hGgt_8wassette15policy_internal5testss_30test_access_type_serialization
FN:1028,_RNvNtNtCs2TM9D3hGgt_8wassette15policy_internal5testss_34test_permission_rule_serialization
FN:597,_RNvNtNtCs2TM9D3hGgt_8wassette15policy_internal5testss_37test_policy_attachment_and_detachment
FN:990,_RNvNtNtCs2TM9D3hGgt_8wassette15policy_internal5testss_40test_grant_permission_to_existing_policy
FN:883,_RNvNtNtCs2TM9D3hGgt_8wassette15policy_internal5testss_41test_grant_permission_component_not_found
FN:719,_RNvNtNtCs2TM9D3hGgt_8wassette15policy_internal5testss_42test_grant_permission_duplicate_prevention
FN:942,_RNvNtNtCs2TM9D3hGgt_8wassette15policy_internal5testss_42test_grant_permission_multiple_permissions
FN:648,_RNvNtNtCs2TM9D3hGgt_8wassette15policy_internal5testss_42test_policy_attachment_component_not_found
FN:922,_RNvNtNtCs2TM9D3hGgt_8wassette15policy_internal5testss_43test_grant_permission_validation_empty_host
FN:851,_RNvNtNtCs2TM9D3hGgt_8wassette15policy_internal5testss_44test_grant_permission_storage_access_merging
FN:902,_RNvNtNtCs2TM9D3hGgt_8wassette15policy_internal5testss_45test_grant_permission_missing_required_fields
FN:970,_RNvNtNtCs2TM9D3hGgt_8wassette15policy_internal5testss_45test_grant_permission_updates_policy_registry
FNDA:2,_RNCNvMNtCsaa7tasbM8Sl_8wassette15policy_internalNtB6_16LifecycleManager16grant_permission0CsfVGYiQvi1X6_10mcp_server
FNDA:1,_RNCNvMNtCsaa7tasbM8Sl_8wassette15policy_internalNtB6_16LifecycleManager16reset_permission0CsfVGYiQvi1X6_10mcp_server
FNDA:2,_RNCNvMNtCsaa7tasbM8Sl_8wassette15policy_internalNtB6_16LifecycleManager17revoke_permission0CsfVGYiQvi1X6_10mcp_server
FNDA:0,_RNCNvMNtCsaa7tasbM8Sl_8wassette15policy_internalNtB6_16LifecycleManager21save_component_policy0CsfVGYiQvi1X6_10mcp_server
FNDA:0,_RNCNvMNtCsaa7tasbM8Sl_8wassette15policy_internalNtB6_16LifecycleManager22update_policy_registry0CsfVGYiQvi1X6_10mcp_server
FNDA:0,_RNCNvMNtCsaa7tasbM8Sl_8wassette15policy_internalNtB6_16LifecycleManager23cleanup_policy_registry0CsfVGYiQvi1X6_10mcp_server
FNDA:0,_RNCNvMNtCsaa7tasbM8Sl_8wassette15policy_internalNtB6_16LifecycleManager31load_or_create_component_policy0CsfVGYiQvi1X6_10mcp_server
FNDA:0,_RNvMNtCsaa7tasbM8Sl_8wassette15policy_internalNtB4_16LifecycleManager13attach_policy
FNDA:0,_RNvMNtCsaa7tasbM8Sl_8wassette15policy_internalNtB4_16LifecycleManager13detach_policy
FNDA:0,_RNvMNtCsaa7tasbM8Sl_8wassette15policy_internalNtB4_16LifecycleManager15get_policy_info
FNDA:2,_RNvMNtCsaa7tasbM8Sl_8wassette15policy_internalNtB4_16LifecycleManager16grant_permission
FNDA:1,_RNvMNtCsaa7tasbM8Sl_8wassette15policy_internalNtB4_16LifecycleManager16reset_permission
FNDA:2,_RNvMNtCsaa7tasbM8Sl_8wassette15policy_internalNtB4_16LifecycleManager17revoke_permission
FNDA:0,_RNvMNtCsaa7tasbM8Sl_8wassette15policy_internalNtB4_16LifecycleManager21parse_permission_rule
FNDA:0,_RNvMNtCsaa7tasbM8Sl_8wassette15policy_internalNtB4_16LifecycleManager21save_component_policy
FNDA:0,_RNvMNtCsaa7tasbM8Sl_8wassette15policy_internalNtB4_16LifecycleManager22update_policy_registry
FNDA:0,_RNvMNtCsaa7tasbM8Sl_8wassette15policy_internalNtB4_16LifecycleManager23cleanup_policy_registry
FNDA:0,_RNvMNtCsaa7tasbM8Sl_8wassette15policy_internalNtB4_16LifecycleManager24validate_permission_rule
FNDA:0,_RNvMNtCsaa7tasbM8Sl_8wassette15policy_internalNtB4_16LifecycleManager25get_component_policy_path
FNDA:0,_RNvMNtCsaa7tasbM8Sl_8wassette15policy_internalNtB4_16LifecycleManager27get_component_metadata_path
FNDA:0,_RNvMNtCsaa7tasbM8Sl_8wassette15policy_internalNtB4_16LifecycleManager29add_permission_rule_to_policy
FNDA:0,_RNvMNtCsaa7tasbM8Sl_8wassette15policy_internalNtB4_16LifecycleManager30create_default_policy_template
FNDA:0,_RNvMNtCsaa7tasbM8Sl_8wassette15policy_internalNtB4_16LifecycleManager31load_or_create_component_policy
FNDA:0,_RNvMNtCsaa7tasbM8Sl_8wassette15policy_internalNtB4_16LifecycleManager32add_network_permission_to_policy
FNDA:0,_RNvMNtCsaa7tasbM8Sl_8wassette15policy_internalNtB4_16LifecycleManager32add_storage_permission_to_policy
FNDA:0,_RNvMNtCsaa7tasbM8Sl_8wassette15policy_internalNtB4_16LifecycleManager34remove_permission_rule_from_policy
FNDA:0,_RNvMNtCsaa7tasbM8Sl_8wassette15policy_internalNtB4_16LifecycleManager36add_environment_permission_to_policy
FNDA:0,_RNvMNtCsaa7tasbM8Sl_8wassette15policy_internalNtB4_16LifecycleManager37remove_network_permission_from_policy
FNDA:0,_RNvMNtCsaa7tasbM8Sl_8wassette15policy_internalNtB4_16LifecycleManager37remove_storage_permission_from_policy
FNDA:0,_RNvMNtCsaa7tasbM8Sl_8wassette15policy_internalNtB4_16LifecycleManager41remove_environment_permission_from_policy
FNDA:0,_RNCNCNvMNtCsaa7tasbM8Sl_8wassette15policy_internalNtB8_16LifecycleManager21parse_permission_rules4_00B8_
FNDA:0,_RNCNvMNtCsaa7tasbM8Sl_8wassette15policy_internalNtB6_16LifecycleManager21parse_permission_rule0B6_
FNDA:0,_RNCNvMNtCsaa7tasbM8Sl_8wassette15policy_internalNtB6_16LifecycleManager21parse_permission_rules0_0B6_
FNDA:0,_RNCNvMNtCsaa7tasbM8Sl_8wassette15policy_internalNtB6_16LifecycleManager21parse_permission_rules1_0B6_
FNDA:0,_RNCNvMNtCsaa7tasbM8Sl_8wassette15policy_internalNtB6_16LifecycleManager21parse_permission_rules2_0B6_
FNDA:0,_RNCNvMNtCsaa7tasbM8Sl_8wassette15policy_internalNtB6_16LifecycleManager21parse_permission_rules3_0B6_
FNDA:0,_RNCNvMNtCsaa7tasbM8Sl_8wassette15policy_internalNtB6_16LifecycleManager21parse_permission_rules4_0B6_
FNDA:0,_RNCNvMNtCsaa7tasbM8Sl_8wassette15policy_internalNtB6_16LifecycleManager21parse_permission_rules5_0B6_
FNDA:0,_RNCNvMNtCsaa7tasbM8Sl_8wassette15policy_internalNtB6_16LifecycleManager21parse_permission_rules6_0B6_
FNDA:0,_RNCNvMNtCsaa7tasbM8Sl_8wassette15policy_internalNtB6_16LifecycleManager21parse_permission_rules7_0B6_
FNDA:0,_RNCNvMNtCsaa7tasbM8Sl_8wassette15policy_internalNtB6_16LifecycleManager21parse_permission_rules_0B6_
FNDA:0,_RNCNvMNtCsaa7tasbM8Sl_8wassette15policy_internalNtB6_16LifecycleManager32add_storage_permission_to_policy0B6_
FNDA:0,_RNCNvMNtCsaa7tasbM8Sl_8wassette15policy_internalNtB6_16LifecycleManager37remove_network_permission_from_policy0B6_
FNDA:0,_RNCNvMNtCsaa7tasbM8Sl_8wassette15policy_internalNtB6_16LifecycleManager37remove_storage_permission_from_policy0B6_
FNDA:0,_RNCNvMNtCsaa7tasbM8Sl_8wassette15policy_internalNtB6_16LifecycleManager41remove_environment_permission_from_policy0B6_
FNDA:0,_RNCNCNvNtNtCs2TM9D3hGgt_8wassette15policy_internal5testss_42test_grant_permission_duplicate_prevention00B9_
FNDA:0,_RNCNCNvNtNtCs2TM9D3hGgt_8wassette15policy_internal5testss_42test_grant_permission_duplicate_prevention0s_0B9_
FNDA:1,_RNCNvNtNtCs2TM9D3hGgt_8wassette15policy_internal5testss_29test_grant_permission_network0B7_
FNDA:1,_RNCNvNtNtCs2TM9D3hGgt_8wassette15policy_internal5testss_29test_grant_permission_storage0B7_
FNDA:1,_RNCNvNtNtCs2TM9D3hGgt_8wassette15policy_internal5testss_37test_policy_attachment_and_detachment0B7_
FNDA:1,_RNCNvNtNtCs2TM9D3hGgt_8wassette15policy_internal5testss_40test_grant_permission_to_existing_policy0B7_
FNDA:1,_RNCNvNtNtCs2TM9D3hGgt_8wassette15policy_internal5testss_41test_grant_permission_component_not_found0B7_
FNDA:1,_RNCNvNtNtCs2TM9D3hGgt_8wassette15policy_internal5testss_42test_grant_permission_duplicate_prevention0B7_
FNDA:1,_RNCNvNtNtCs2TM9D3hGgt_8wassette15policy_internal5testss_42test_grant_permission_multiple_permissions0B7_
FNDA:1,_RNCNvNtNtCs2TM9D3hGgt_8wassette15policy_internal5testss_42test_policy_attachment_component_not_found0B7_
FNDA:1,_RNCNvNtNtCs2TM9D3hGgt_8wassette15policy_internal5testss_43test_grant_permission_validation_empty_host0B7_
FNDA:1,_RNCNvNtNtCs2TM9D3hGgt_8wassette15policy_internal5testss_44test_grant_permission_storage_access_merging0B7_
FNDA:1,_RNCNvNtNtCs2TM9D3hGgt_8wassette15policy_internal5testss_45test_grant_permission_missing_required_fields0B7_
FNDA:1,_RNCNvNtNtCs2TM9D3hGgt_8wassette15policy_internal5testss_45test_grant_permission_updates_policy_registry0B7_
FNDA:0,_RNCNCNvMNtCs2TM9D3hGgt_8wassette15policy_internalNtB8_16LifecycleManager15get_policy_info00B8_
FNDA:0,_RNCNCNvMNtCs2TM9D3hGgt_8wassette15policy_internalNtB8_16LifecycleManager15get_policy_info0s_0B8_
FNDA:0,_RNCNCNvMNtCs2TM9D3hGgt_8wassette15policy_internalNtB8_16LifecycleManager21parse_permission_rules4_00B8_
FNDA:1,_RNCNvMNtCs2TM9D3hGgt_8wassette15policy_internalNtB6_16LifecycleManager13attach_policy0B6_
FNDA:0,_RNCNvMNtCs2TM9D3hGgt_8wassette15policy_internalNtB6_16LifecycleManager13detach_policy0B6_
FNDA:0,_RNCNvMNtCs2TM9D3hGgt_8wassette15policy_internalNtB6_16LifecycleManager15get_policy_info0B6_
FNDA:1,_RNCNvMNtCs2TM9D3hGgt_8wassette15policy_internalNtB6_16LifecycleManager16grant_permission0B6_
FNDA:1,_RNCNvMNtCs2TM9D3hGgt_8wassette15policy_internalNtB6_16LifecycleManager16reset_permission0B6_
FNDA:1,_RNCNvMNtCs2TM9D3hGgt_8wassette15policy_internalNtB6_16LifecycleManager17revoke_permission0B6_
FNDA:0,_RNCNvMNtCs2TM9D3hGgt_8wassette15policy_internalNtB6_16LifecycleManager21parse_permission_rule0B6_
FNDA:0,_RNCNvMNtCs2TM9D3hGgt_8wassette15policy_internalNtB6_16LifecycleManager21parse_permission_rules0_0B6_
FNDA:0,_RNCNvMNtCs2TM9D3hGgt_8wassette15policy_internalNtB6_16LifecycleManager21parse_permission_rules1_0B6_
FNDA:0,_RNCNvMNtCs2TM9D3hGgt_8wassette15policy_internalNtB6_16LifecycleManager21parse_permission_rules2_0B6_
FNDA:0,_RNCNvMNtCs2TM9D3hGgt_8wassette15policy_internalNtB6_16LifecycleManager21parse_permission_rules3_0B6_
FNDA:0,_RNCNvMNtCs2TM9D3hGgt_8wassette15policy_internalNtB6_16LifecycleManager21parse_permission_rules4_0B6_
FNDA:0,_RNCNvMNtCs2TM9D3hGgt_8wassette15policy_internalNtB6_16LifecycleManager21parse_permission_rules5_0B6_
FNDA:0,_RNCNvMNtCs2TM9D3hGgt_8wassette15policy_internalNtB6_16LifecycleManager21parse_permission_rules6_0B6_
FNDA:0,_RNCNvMNtCs2TM9D3hGgt_8wassette15policy_internalNtB6_16LifecycleManager21parse_permission_rules7_0B6_
FNDA:0,_RNCNvMNtCs2TM9D3hGgt_8wassette15policy_internalNtB6_16LifecycleManager21parse_permission_rules_0B6_
FNDA:0,_RNCNvMNtCs2TM9D3hGgt_8wassette15policy_internalNtB6_16LifecycleManager21save_component_policy0B6_
FNDA:0,_RNCNvMNtCs2TM9D3hGgt_8wassette15policy_internalNtB6_16LifecycleManager22update_policy_registry0B6_
FNDA:0,_RNCNvMNtCs2TM9D3hGgt_8wassette15policy_internalNtB6_16LifecycleManager23cleanup_policy_registry0B6_
FNDA:0,_RNCNvMNtCs2TM9D3hGgt_8wassette15policy_internalNtB6_16LifecycleManager31load_or_create_component_policy0B6_
FNDA:0,_RNCNvMNtCs2TM9D3hGgt_8wassette15policy_internalNtB6_16LifecycleManager32add_storage_permission_to_policy0B6_
FNDA:0,_RNCNvMNtCs2TM9D3hGgt_8wassette15policy_internalNtB6_16LifecycleManager37remove_network_permission_from_policy0B6_
FNDA:0,_RNCNvMNtCs2TM9D3hGgt_8wassette15policy_internalNtB6_16LifecycleManager37remove_storage_permission_from_policy0B6_
FNDA:0,_RNCNvMNtCs2TM9D3hGgt_8wassette15policy_internalNtB6_16LifecycleManager41remove_environment_permission_from_policy0B6_
FNDA:1,_RNvMNtCs2TM9D3hGgt_8wassette15policy_internalNtB4_16LifecycleManager13attach_policy
FNDA:0,_RNvMNtCs2TM9D3hGgt_8wassette15policy_internalNtB4_16LifecycleManager13detach_policy
FNDA:0,_RNvMNtCs2TM9D3hGgt_8wassette15policy_internalNtB4_16LifecycleManager15get_policy_info
FNDA:1,_RNvMNtCs2TM9D3hGgt_8wassette15policy_internalNtB4_16LifecycleManager16grant_permission
FNDA:1,_RNvMNtCs2TM9D3hGgt_8wassette15policy_internalNtB4_16LifecycleManager16reset_permission
FNDA:1,_RNvMNtCs2TM9D3hGgt_8wassette15policy_internalNtB4_16LifecycleManager17revoke_permission
FNDA:0,_RNvMNtCs2TM9D3hGgt_8wassette15policy_internalNtB4_16LifecycleManager21parse_permission_rule
FNDA:0,_RNvMNtCs2TM9D3hGgt_8wassette15policy_internalNtB4_16LifecycleManager21save_component_policy
FNDA:0,_RNvMNtCs2TM9D3hGgt_8wassette15policy_internalNtB4_16LifecycleManager22update_policy_registry
FNDA:0,_RNvMNtCs2TM9D3hGgt_8wassette15policy_internalNtB4_16LifecycleManager23cleanup_policy_registry
FNDA:0,_RNvMNtCs2TM9D3hGgt_8wassette15policy_internalNtB4_16LifecycleManager24validate_permission_rule
FNDA:0,_RNvMNtCs2TM9D3hGgt_8wassette15policy_internalNtB4_16LifecycleManager25get_component_policy_path
FNDA:0,_RNvMNtCs2TM9D3hGgt_8wassette15policy_internalNtB4_16LifecycleManager27get_component_metadata_path
FNDA:0,_RNvMNtCs2TM9D3hGgt_8wassette15policy_internalNtB4_16LifecycleManager29add_permission_rule_to_policy
FNDA:0,_RNvMNtCs2TM9D3hGgt_8wassette15policy_internalNtB4_16LifecycleManager30create_default_policy_template
FNDA:0,_RNvMNtCs2TM9D3hGgt_8wassette15policy_internalNtB4_16LifecycleManager31load_or_create_component_policy
FNDA:0,_RNvMNtCs2TM9D3hGgt_8wassette15policy_internalNtB4_16LifecycleManager32add_network_permission_to_policy
FNDA:0,_RNvMNtCs2TM9D3hGgt_8wassette15policy_internalNtB4_16LifecycleManager32add_storage_permission_to_policy
FNDA:0,_RNvMNtCs2TM9D3hGgt_8wassette15policy_internalNtB4_16LifecycleManager34remove_permission_rule_from_policy
FNDA:0,_RNvMNtCs2TM9D3hGgt_8wassette15policy_internalNtB4_16LifecycleManager36add_environment_permission_to_policy
FNDA:0,_RNvMNtCs2TM9D3hGgt_8wassette15policy_internalNtB4_16LifecycleManager37remove_network_permission_from_policy
FNDA:0,_RNvMNtCs2TM9D3hGgt_8wassette15policy_internalNtB4_16LifecycleManager37remove_storage_permission_from_policy
FNDA:0,_RNvMNtCs2TM9D3hGgt_8wassette15policy_internalNtB4_16LifecycleManager41remove_environment_permission_from_policy
FNDA:1,_RNvNtNtCs2TM9D3hGgt_8wassette15policy_internal5testss_25test_permission_type_enum
FNDA:1,_RNvNtNtCs2TM9D3hGgt_8wassette15policy_internal5testss_29test_grant_permission_network
FNDA:1,_RNvNtNtCs2TM9D3hGgt_8wassette15policy_internal5testss_29test_grant_permission_storage
FNDA:1,_RNvNtNtCs2TM9D3hGgt_8wassette15policy_internal5testss_30test_access_type_serialization
FNDA:1,_RNvNtNtCs2TM9D3hGgt_8wassette15policy_internal5testss_34test_permission_rule_serialization
FNDA:1,_RNvNtNtCs2TM9D3hGgt_8wassette15policy_internal5testss_37test_policy_attachment_and_detachment
FNDA:1,_RNvNtNtCs2TM9D3hGgt_8wassette15policy_internal5testss_40test_grant_permission_to_existing_policy
FNDA:1,_RNvNtNtCs2TM9D3hGgt_8wassette15policy_internal5testss_41test_grant_permission_component_not_found
FNDA:1,_RNvNtNtCs2TM9D3hGgt_8wassette15policy_internal5testss_42test_grant_permission_duplicate_prevention
FNDA:1,_RNvNtNtCs2TM9D3hGgt_8wassette15policy_internal5testss_42test_grant_permission_multiple_permissions
FNDA:1,_RNvNtNtCs2TM9D3hGgt_8wassette15policy_internal5testss_42test_policy_attachment_component_not_found
FNDA:1,_RNvNtNtCs2TM9D3hGgt_8wassette15policy_internal5testss_43test_grant_permission_validation_empty_host
FNDA:1,_RNvNtNtCs2TM9D3hGgt_8wassette15policy_internal5testss_44test_grant_permission_storage_access_merging
FNDA:1,_RNvNtNtCs2TM9D3hGgt_8wassette15policy_internal5testss_45test_grant_permission_missing_required_fields
FNDA:1,_RNvNtNtCs2TM9D3hGgt_8wassette15policy_internal5testss_45test_grant_permission_updates_policy_registry
FNF:79
FNH:35
DA:76,1
DA:77,1
DA:79,1
DA:80,1
DA:81,0
DA:83,0
DA:84,0
DA:85,0
DA:86,0
DA:87,0
DA:88,0
DA:90,0
DA:92,0
DA:93,0
DA:96,0
DA:97,0
DA:98,0
DA:100,0
DA:101,0
DA:103,0
DA:104,0
DA:105,0
DA:106,0
DA:107,0
DA:109,0
DA:111,0
DA:112,0
DA:113,1
DA:117,0
DA:118,0
DA:121,0
DA:122,0
DA:123,0
DA:125,0
DA:126,0
DA:127,0
DA:130,0
DA:132,0
DA:133,0
DA:134,0
DA:141,0
DA:142,0
DA:143,0
DA:144,0
DA:145,0
DA:147,0
DA:148,0
DA:149,0
DA:150,0
DA:151,0
DA:152,0
DA:153,0
DA:154,0
DA:155,0
DA:157,0
DA:160,0
DA:163,0
DA:164,0
DA:165,0
DA:166,0
DA:168,0
DA:169,0
DA:170,0
DA:171,0
DA:172,0
DA:173,0
DA:174,0
DA:175,0
DA:177,0
DA:178,0
DA:179,0
DA:181,0
DA:182,0
DA:183,0
DA:184,0
DA:186,0
DA:187,0
DA:188,0
DA:191,0
DA:192,0
DA:193,0
DA:194,0
DA:196,0
DA:197,0
DA:201,3
DA:202,3
DA:203,3
DA:204,3
DA:205,3
DA:206,3
DA:227,3
DA:230,0
DA:231,0
DA:232,0
DA:233,0
DA:234,0
DA:235,0
DA:236,0
DA:237,0
DA:238,0
DA:239,0
DA:240,0
DA:241,0
DA:242,0
DA:243,0
DA:245,0
DA:246,0
DA:247,0
DA:248,0
DA:249,0
DA:250,0
DA:251,0
DA:252,0
DA:253,0
DA:255,0
DA:256,0
DA:257,0
DA:258,0
DA:259,0
DA:260,0
DA:261,0
DA:262,0
DA:263,0
DA:266,0
DA:267,0
DA:270,0
DA:271,0
DA:272,0
DA:273,0
DA:274,0
DA:275,0
DA:276,0
DA:277,0
DA:279,0
DA:281,0
DA:285,0
DA:286,0
DA:289,0
DA:290,0
DA:291,0
DA:292,0
DA:293,0
DA:295,0
DA:296,0
DA:297,0
DA:300,0
DA:301,0
DA:302,0
DA:303,0
DA:304,0
DA:305,0
DA:306,0
DA:308,0
DA:311,0
DA:312,0
DA:313,0
DA:314,0
DA:315,0
DA:316,0
DA:317,0
DA:318,0
DA:320,0
DA:321,0
DA:323,0
DA:324,0
DA:326,0
DA:327,0
DA:330,0
DA:333,0
DA:334,0
DA:335,0
DA:336,0
DA:337,0
DA:338,0
DA:339,0
DA:340,0
DA:341,0
DA:342,0
DA:343,0
DA:346,0
DA:347,0
DA:348,0
DA:350,0
DA:351,0
DA:354,0
DA:355,0
DA:356,0
DA:357,0
DA:358,0
DA:359,0
DA:360,0
DA:361,0
DA:362,0
DA:363,0
DA:364,0
DA:367,0
DA:369,0
DA:370,0
DA:371,0
DA:372,0
DA:376,0
DA:377,0
DA:378,0
DA:381,0
DA:382,0
DA:385,0
DA:386,0
DA:387,0
DA:388,0
DA:389,0
DA:390,0
DA:391,0
DA:392,0
DA:393,0
DA:394,0
DA:395,0
DA:398,0
DA:399,0
DA:400,0
DA:402,0
DA:403,0
DA:406,0
DA:407,0
DA:408,0
DA:409,0
DA:410,0
DA:411,0
DA:412,0
DA:413,0
DA:414,0
DA:415,0
DA:418,0
DA:419,0
DA:420,0
DA:421,0
DA:422,0
DA:423,0
DA:424,0
DA:425,0
DA:426,0
DA:427,0
DA:429,0
DA:430,0
DA:431,0
DA:434,0
DA:435,0
DA:436,0
DA:437,0
DA:438,0
DA:439,0
DA:441,0
DA:443,0
DA:444,0
DA:445,0
DA:446,0
DA:447,0
DA:448,0
DA:450,0
DA:451,0
DA:452,0
DA:453,0
DA:455,0
DA:457,0
DA:458,0
DA:462,3
DA:463,3
DA:464,3
DA:465,3
DA:466,3
DA:467,3
DA:488,3
DA:492,2
DA:512,2
DA:515,0
DA:516,0
DA:517,0
DA:518,0
DA:519,0
DA:520,0
DA:521,0
DA:522,0
DA:524,0
DA:525,0
DA:527,0
DA:528,0
DA:530,0
DA:531,0
DA:534,0
DA:537,0
DA:538,0
DA:539,0
DA:540,0
DA:541,0
DA:542,0
DA:543,0
DA:544,0
DA:546,0
DA:547,0
DA:548,0
DA:549,0
DA:550,0
DA:551,0
DA:552,0
DA:555,0
DA:556,0
DA:557,0
DA:558,0
DA:559,0
DA:560,0
DA:561,0
DA:562,0
DA:564,0
DA:565,0
DA:566,0
DA:567,0
DA:568,0
DA:569,0
DA:570,0
DA:573,0
DA:574,0
DA:575,0
DA:576,0
DA:577,0
DA:578,0
DA:579,0
DA:580,0
DA:582,0
DA:583,0
DA:584,0
DA:585,0
DA:586,0
DA:587,0
DA:588,0
DA:597,1
DA:598,1
DA:599,1
DA:602,0
DA:603,0
DA:604,0
DA:605,0
DA:606,0
DA:607,0
DA:608,0
DA:609,0
DA:610,0
DA:611,0
DA:612,0
DA:613,0
DA:614,0
DA:616,0
DA:619,0
DA:620,0
DA:621,0
DA:624,0
DA:625,0
DA:626,0
DA:627,0
DA:628,0
DA:631,0
DA:632,0
DA:635,0
DA:638,0
DA:639,0
DA:642,0
DA:644,1
DA:645,1
DA:648,1
DA:649,1
DA:651,1
DA:652,1
DA:653,1
DA:654,1
DA:655,1
DA:656,1
DA:657,1
DA:659,1
DA:662,1
DA:663,1
DA:664,1
DA:665,1
DA:666,1
DA:667,1
DA:669,2
DA:670,1
DA:673,1
DA:674,1
DA:675,1
DA:678,0
DA:679,0
DA:680,0
DA:681,0
DA:684,0
DA:685,0
DA:687,0
DA:688,0
DA:689,0
DA:691,1
DA:692,1
DA:695,1
DA:696,1
DA:697,1
DA:700,0
DA:701,0
DA:702,0
DA:703,0
DA:706,0
DA:707,0
DA:709,0
DA:710,0
DA:711,0
DA:712,0
DA:713,0
DA:715,1
DA:716,1
DA:719,1
DA:720,1
DA:721,1
DA:723,0
DA:724,0
DA:725,0
DA:726,0
DA:727,0
DA:728,0
DA:729,0
DA:731,0
DA:732,0
DA:733,0
DA:734,0
DA:735,0
DA:736,0
DA:737,0
DA:739,0
DA:740,0
DA:741,0
DA:742,0
DA:743,0
DA:744,0
DA:745,0
DA:747,0
DA:748,0
DA:749,0
DA:750,0
DA:751,0
DA:753,0
DA:754,0
DA:755,0
DA:756,0
DA:757,0
DA:758,0
DA:759,0
DA:760,0
DA:762,0
DA:763,0
DA:765,0
DA:766,0
DA:768,0
DA:771,0
DA:772,0
DA:774,0
DA:777,0
DA:778,0
DA:780,0
DA:783,0
DA:784,0
DA:786,0
DA:789,0
DA:790,0
DA:791,0
DA:793,0
DA:794,0
DA:795,0
DA:798,0
DA:800,0
DA:801,0
DA:802,0
DA:803,0
DA:805,0
DA:808,0
DA:809,0
DA:810,0
DA:811,0
DA:813,0
DA:816,0
DA:817,0
DA:818,0
DA:819,0
DA:821,0
DA:824,0
DA:825,0
DA:826,0
DA:827,0
DA:828,0
DA:829,0
DA:831,0
DA:833,0
DA:834,0
DA:836,0
DA:837,0
DA:838,0
DA:839,0
DA:840,0
DA:841,0
DA:843,0
DA:845,0
DA:847,1
DA:848,1
DA:851,1
DA:852,1
DA:853,1
DA:856,0
DA:857,0
DA:858,0
DA:859,0
DA:862,0
DA:863,0
DA:864,0
DA:865,0
DA:868,0
DA:869,0
DA:872,0
DA:873,0
DA:876,0
DA:877,0
DA:879,1
DA:880,1
DA:883,1
DA:884,1
DA:887,1
DA:888,1
DA:889,1
DA:890,1
DA:892,1
DA:893,1
DA:894,1
DA:895,1
DA:896,1
DA:898,2
DA:899,1
DA:902,1
DA:903,1
DA:904,1
DA:907,0
DA:908,0
DA:909,0
DA:910,0
DA:912,0
DA:913,0
DA:914,0
DA:915,0
DA:916,0
DA:918,1
DA:919,1
DA:922,1
DA:923,1
DA:924,1
DA:927,0
DA:928,0
DA:929,0
DA:930,0
DA:932,0
DA:933,0
DA:934,0
DA:935,0
DA:936,0
DA:938,1
DA:939,1
DA:942,1
DA:943,1
DA:944,1
DA:947,0
DA:948,0
DA:949,0
DA:950,0
DA:952,0
DA:953,0
DA:954,0
DA:955,0
DA:958,0
DA:959,0
DA:961,0
DA:962,0
DA:963,0
DA:964,0
DA:966,1
DA:967,1
DA:970,1
DA:971,1
DA:972,1
DA:975,0
DA:976,0
DA:977,0
DA:978,0
DA:981,0
DA:982,0
DA:983,0
DA:986,1
DA:987,1
DA:990,1
DA:991,1
DA:992,1
DA:995,0
DA:996,0
DA:997,0
DA:998,0
DA:999,0
DA:1000,0
DA:1001,0
DA:1002,0
DA:1003,0
DA:1004,0
DA:1006,0
DA:1007,0
DA:1008,0
DA:1009,0
DA:1012,0
DA:1013,0
DA:1014,0
DA:1015,0
DA:1018,0
DA:1019,0
DA:1021,0
DA:1022,0
DA:1024,1
DA:1025,1
DA:1028,1
DA:1030,1
DA:1031,1
DA:1032,1
DA:1033,1
DA:1034,1
DA:1035,1
DA:1037,1
DA:1038,1
DA:1039,1
DA:1040,1
DA:1041,1
DA:1042,1
DA:1043,1
DA:1044,1
DA:1046,1
DA:1047,1
DA:1050,1
DA:1052,1
DA:1053,1
DA:1054,1
DA:1055,1
DA:1056,1
DA:1057,1
DA:1058,1
DA:1059,1
DA:1060,1
DA:1061,1
DA:1062,1
DA:1063,1
DA:1064,1
DA:1065,1
DA:1066,1
DA:1069,1
DA:1070,1
DA:1071,1
DA:1074,1
DA:1075,1
DA:1076,1
DA:1079,1
DA:1080,1
DA:1081,1
DA:1082,1
DA:1083,1
DA:1084,1
DA:1086,0
DA:1089,1
DA:1090,1
DA:1093,1
DA:1095,1
DA:1096,1
DA:1097,1
DA:1099,1
DA:1100,1
DA:1101,1
DA:1103,1
DA:1104,1
BRF:0
BRH:0
LF:734
LH:176
end_of_record
SF:/home/runner/work/wassette/wassette/crates/wassette/src/wasistate.rs
FN:40,_RNvMs1_NtCsaa7tasbM8Sl_8wassette9wasistateNtB5_17WasiStateTemplate5build
FN:151,_RNvNtCsaa7tasbM8Sl_8wassette9wasistate16extract_env_vars
FN:226,_RNvNtCsaa7tasbM8Sl_8wassette9wasistate21calculate_permissions
FN:180,_RNvNtCsaa7tasbM8Sl_8wassette9wasistate21extract_allowed_hosts
FN:165,_RNvNtCsaa7tasbM8Sl_8wassette9wasistate21extract_network_perms
FN:199,_RNvNtCsaa7tasbM8Sl_8wassette9wasistate27extract_storage_permissions
FN:133,_RNvNtCsaa7tasbM8Sl_8wassette9wasistate38create_wasi_state_template_from_policy
FN:21,_RNvXNtCsaa7tasbM8Sl_8wassette9wasistateNtB2_9WasiStateNtCs110aWeMLEFF_16wasmtime_wasi_io6IoView5table
FN:33,_RNvXs0_NtCsaa7tasbM8Sl_8wassette9wasistateNtB5_9WasiStateNtNtCs8NmfeQ6pAju_18wasmtime_wasi_http5types12WasiHttpView3ctx
FN:119,_RNvXs2_NtCsaa7tasbM8Sl_8wassette9wasistateNtB5_17WasiStateTemplateNtNtCs66KPHxksi63_4core7default7Default7default
FN:27,_RNvXs_NtCsaa7tasbM8Sl_8wassette9wasistateNtB4_9WasiStateNtNtNtCsdd3XX0FC8WL_13wasmtime_wasi2p24view8WasiView3ctx
FN:231,_RNCNvNtCsaa7tasbM8Sl_8wassette9wasistate21calculate_permissions0B5_
FN:240,_RNCNvNtCsaa7tasbM8Sl_8wassette9wasistate21calculate_permissionss_0B5_
FN:188,_RNCNvNtCsaa7tasbM8Sl_8wassette9wasistate21extract_allowed_hosts0B5_
FN:40,_RNvMs1_NtCs2TM9D3hGgt_8wassette9wasistateNtB5_17WasiStateTemplate5build
FN:151,_RNvNtCs2TM9D3hGgt_8wassette9wasistate16extract_env_vars
FN:226,_RNvNtCs2TM9D3hGgt_8wassette9wasistate21calculate_permissions
FN:180,_RNvNtCs2TM9D3hGgt_8wassette9wasistate21extract_allowed_hosts
FN:165,_RNvNtCs2TM9D3hGgt_8wassette9wasistate21extract_network_perms
FN:199,_RNvNtCs2TM9D3hGgt_8wassette9wasistate27extract_storage_permissions
FN:133,_RNvNtCs2TM9D3hGgt_8wassette9wasistate38create_wasi_state_template_from_policy
FN:21,_RNvXNtCs2TM9D3hGgt_8wassette9wasistateNtB2_9WasiStateNtCs110aWeMLEFF_16wasmtime_wasi_io6IoView5table
FN:33,_RNvXs0_NtCs2TM9D3hGgt_8wassette9wasistateNtB5_9WasiStateNtNtCs8NmfeQ6pAju_18wasmtime_wasi_http5types12WasiHttpView3ctx
FN:119,_RNvXs2_NtCs2TM9D3hGgt_8wassette9wasistateNtB5_17WasiStateTemplateNtNtCs66KPHxksi63_4core7default7Default7default
FN:27,_RNvXs_NtCs2TM9D3hGgt_8wassette9wasistateNtB4_9WasiStateNtNtNtCsdd3XX0FC8WL_13wasmtime_wasi2p24view8WasiView3ctx
FN:400,_RNCNvNtNtCs2TM9D3hGgt_8wassette9wasistate5testss_46test_extract_environment_variables_missing_env0B7_
FN:386,_RNCNvNtNtCs2TM9D3hGgt_8wassette9wasistate5testss_49test_extract_environment_variables_with_isolation0B7_
FN:269,_RNvNtNtCs2TM9D3hGgt_8wassette9wasistate5tests18create_test_policy
FN:260,_RNvNtNtCs2TM9D3hGgt_8wassette9wasistate5tests29create_zero_permission_policy
FN:308,_RNvNtNtCs2TM9D3hGgt_8wassette9wasistate5tests33create_policy_without_permissions
FN:295,_RNvNtNtCs2TM9D3hGgt_8wassette9wasistate5tests36create_policy_with_duplicated_access
FN:354,_RNvNtNtCs2TM9D3hGgt_8wassette9wasistate5testss_32test_calculate_permissions_empty
FN:465,_RNvNtNtCs2TM9D3hGgt_8wassette9wasistate5testss_32test_extract_storage_permissions
FN:318,_RNvNtNtCs2TM9D3hGgt_8wassette9wasistate5testss_36test_calculate_permissions_read_only
FN:339,_RNvNtNtCs2TM9D3hGgt_8wassette9wasistate5testss_37test_calculate_permissions_read_write
FN:327,_RNvNtNtCs2TM9D3hGgt_8wassette9wasistate5testss_37test_calculate_permissions_write_only
FN:568,_RNvNtNtCs2TM9D3hGgt_8wassette9wasistate5testss_43test_create_wasi_state_template_from_policy
FN:428,_RNvNtNtCs2TM9D3hGgt_8wassette9wasistate5testss_43test_extract_network_permissions_with_allow
FN:363,_RNvNtNtCs2TM9D3hGgt_8wassette9wasistate5testss_44test_calculate_permissions_duplicated_access
FN:397,_RNvNtNtCs2TM9D3hGgt_8wassette9wasistate5testss_46test_extract_environment_variables_missing_env
FN:438,_RNvNtNtCs2TM9D3hGgt_8wassette9wasistate5testss_47test_extract_network_permissions_no_permissions
FN:519,_RNvNtNtCs2TM9D3hGgt_8wassette9wasistate5testss_47test_extract_storage_permissions_no_permissions
FN:407,_RNvNtNtCs2TM9D3hGgt_8wassette9wasistate5testss_49test_extract_environment_variables_no_permissions
FN:383,_RNvNtNtCs2TM9D3hGgt_8wassette9wasistate5testss_49test_extract_environment_variables_with_isolation
FN:448,_RNvNtNtCs2TM9D3hGgt_8wassette9wasistate5testss_49test_extract_network_permissions_empty_allow_list
FN:530,_RNvNtNtCs2TM9D3hGgt_8wassette9wasistate5testss_49test_extract_storage_permissions_empty_allow_list
FN:501,_RNvNtNtCs2TM9D3hGgt_8wassette9wasistate5testss_49test_extract_storage_permissions_skips_non_fs_uri
FN:414,_RNvNtNtCs2TM9D3hGgt_8wassette9wasistate5testss_51test_extract_environment_variables_empty_allow_list
FN:582,_RNvNtNtCs2TM9D3hGgt_8wassette9wasistate5testss_58test_create_wasi_state_template_from_policy_no_permissions
FN:548,_RNvNtNtCs2TM9D3hGgt_8wassette9wasistate5testss_64test_extract_storage_permissions_duplicated_access_has_no_effect
FN:231,_RNCNvNtCs2TM9D3hGgt_8wassette9wasistate21calculate_permissions0B5_
FN:240,_RNCNvNtCs2TM9D3hGgt_8wassette9wasistate21calculate_permissionss_0B5_
FN:188,_RNCNvNtCs2TM9D3hGgt_8wassette9wasistate21extract_allowed_hosts0B5_
FNDA:0,_RNvMs1_NtCsaa7tasbM8Sl_8wassette9wasistateNtB5_17WasiStateTemplate5build
FNDA:0,_RNvNtCsaa7tasbM8Sl_8wassette9wasistate16extract_env_vars
FNDA:0,_RNvNtCsaa7tasbM8Sl_8wassette9wasistate21calculate_permissions
FNDA:0,_RNvNtCsaa7tasbM8Sl_8wassette9wasistate21extract_allowed_hosts
FNDA:0,_RNvNtCsaa7tasbM8Sl_8wassette9wasistate21extract_network_perms
FNDA:0,_RNvNtCsaa7tasbM8Sl_8wassette9wasistate27extract_storage_permissions
FNDA:0,_RNvNtCsaa7tasbM8Sl_8wassette9wasistate38create_wasi_state_template_from_policy
FNDA:0,_RNvXNtCsaa7tasbM8Sl_8wassette9wasistateNtB2_9WasiStateNtCs110aWeMLEFF_16wasmtime_wasi_io6IoView5table
FNDA:0,_RNvXs0_NtCsaa7tasbM8Sl_8wassette9wasistateNtB5_9WasiStateNtNtCs8NmfeQ6pAju_18wasmtime_wasi_http5types12WasiHttpView3ctx
FNDA:0,_RNvXs2_NtCsaa7tasbM8Sl_8wassette9wasistateNtB5_17WasiStateTemplateNtNtCs66KPHxksi63_4core7default7Default7default
FNDA:0,_RNvXs_NtCsaa7tasbM8Sl_8wassette9wasistateNtB4_9WasiStateNtNtNtCsdd3XX0FC8WL_13wasmtime_wasi2p24view8WasiView3ctx
FNDA:0,_RNCNvNtCsaa7tasbM8Sl_8wassette9wasistate21calculate_permissions0B5_
FNDA:0,_RNCNvNtCsaa7tasbM8Sl_8wassette9wasistate21calculate_permissionss_0B5_
FNDA:0,_RNCNvNtCsaa7tasbM8Sl_8wassette9wasistate21extract_allowed_hosts0B5_
FNDA:0,_RNvMs1_NtCs2TM9D3hGgt_8wassette9wasistateNtB5_17WasiStateTemplate5build
FNDA:7,_RNvNtCs2TM9D3hGgt_8wassette9wasistate16extract_env_vars
FNDA:1551,_RNvNtCs2TM9D3hGgt_8wassette9wasistate21calculate_permissions
FNDA:3,_RNvNtCs2TM9D3hGgt_8wassette9wasistate21extract_allowed_hosts
FNDA:6,_RNvNtCs2TM9D3hGgt_8wassette9wasistate21extract_network_perms
FNDA:8,_RNvNtCs2TM9D3hGgt_8wassette9wasistate27extract_storage_permissions
FNDA:3,_RNvNtCs2TM9D3hGgt_8wassette9wasistate38create_wasi_state_template_from_policy
FNDA:0,_RNvXNtCs2TM9D3hGgt_8wassette9wasistateNtB2_9WasiStateNtCs110aWeMLEFF_16wasmtime_wasi_io6IoView5table
FNDA:0,_RNvXs0_NtCs2TM9D3hGgt_8wassette9wasistateNtB5_9WasiStateNtNtCs8NmfeQ6pAju_18wasmtime_wasi_http5types12WasiHttpView3ctx
FNDA:3,_RNvXs2_NtCs2TM9D3hGgt_8wassette9wasistateNtB5_17WasiStateTemplateNtNtCs66KPHxksi63_4core7default7Default7default
FNDA:0,_RNvXs_NtCs2TM9D3hGgt_8wassette9wasistateNtB4_9WasiStateNtNtNtCsdd3XX0FC8WL_13wasmtime_wasi2p24view8WasiView3ctx
FNDA:1,_RNCNvNtNtCs2TM9D3hGgt_8wassette9wasistate5testss_46test_extract_environment_variables_missing_env0B7_
FNDA:1,_RNCNvNtNtCs2TM9D3hGgt_8wassette9wasistate5testss_49test_extract_environment_variables_with_isolation0B7_
FNDA:6,_RNvNtNtCs2TM9D3hGgt_8wassette9wasistate5tests18create_test_policy
FNDA:3,_RNvNtNtCs2TM9D3hGgt_8wassette9wasistate5tests29create_zero_permission_policy
FNDA:1,_RNvNtNtCs2TM9D3hGgt_8wassette9wasistate5tests33create_policy_without_permissions
FNDA:1,_RNvNtNtCs2TM9D3hGgt_8wassette9wasistate5tests36create_policy_with_duplicated_access
FNDA:1,_RNvNtNtCs2TM9D3hGgt_8wassette9wasistate5testss_32test_calculate_permissions_empty
FNDA:1,_RNvNtNtCs2TM9D3hGgt_8wassette9wasistate5testss_32test_extract_storage_permissions
FNDA:1,_RNvNtNtCs2TM9D3hGgt_8wassette9wasistate5testss_36test_calculate_permissions_read_only
FNDA:1,_RNvNtNtCs2TM9D3hGgt_8wassette9wasistate5testss_37test_calculate_permissions_read_write
FNDA:1,_RNvNtNtCs2TM9D3hGgt_8wassette9wasistate5testss_37test_calculate_permissions_write_only
FNDA:1,_RNvNtNtCs2TM9D3hGgt_8wassette9wasistate5testss_43test_create_wasi_state_template_from_policy
FNDA:1,_RNvNtNtCs2TM9D3hGgt_8wassette9wasistate5testss_43test_extract_network_permissions_with_allow
FNDA:1,_RNvNtNtCs2TM9D3hGgt_8wassette9wasistate5testss_44test_calculate_permissions_duplicated_access
FNDA:1,_RNvNtNtCs2TM9D3hGgt_8wassette9wasistate5testss_46test_extract_environment_variables_missing_env
FNDA:1,_RNvNtNtCs2TM9D3hGgt_8wassette9wasistate5testss_47test_extract_network_permissions_no_permissions
FNDA:1,_RNvNtNtCs2TM9D3hGgt_8wassette9wasistate5testss_47test_extract_storage_permissions_no_permissions
FNDA:1,_RNvNtNtCs2TM9D3hGgt_8wassette9wasistate5testss_49test_extract_environment_variables_no_permissions
FNDA:1,_RNvNtNtCs2TM9D3hGgt_8wassette9wasistate5testss_49test_extract_environment_variables_with_isolation
FNDA:1,_RNvNtNtCs2TM9D3hGgt_8wassette9wasistate5testss_49test_extract_network_permissions_empty_allow_list
FNDA:1,_RNvNtNtCs2TM9D3hGgt_8wassette9wasistate5testss_49test_extract_storage_permissions_empty_allow_list
FNDA:1,_RNvNtNtCs2TM9D3hGgt_8wassette9wasistate5testss_49test_extract_storage_permissions_skips_non_fs_uri
FNDA:1,_RNvNtNtCs2TM9D3hGgt_8wassette9wasistate5testss_51test_extract_environment_variables_empty_allow_list
FNDA:1,_RNvNtNtCs2TM9D3hGgt_8wassette9wasistate5testss_58test_create_wasi_state_template_from_policy_no_permissions
FNDA:1,_RNvNtNtCs2TM9D3hGgt_8wassette9wasistate5testss_64test_extract_storage_permissions_duplicated_access_has_no_effect
FNDA:8043,_RNCNvNtCs2TM9D3hGgt_8wassette9wasistate21calculate_permissions0B5_
FNDA:8043,_RNCNvNtCs2TM9D3hGgt_8wassette9wasistate21calculate_permissionss_0B5_
FNDA:3,_RNCNvNtCs2TM9D3hGgt_8wassette9wasistate21extract_allowed_hosts0B5_
FNF:39
FNH:35
DA:21,0
DA:22,0
DA:23,0
DA:27,0
DA:28,0
DA:29,0
DA:33,0
DA:34,0
DA:35,0
DA:40,0
DA:41,0
DA:42,0
DA:43,0
DA:44,0
DA:45,0
DA:46,0
DA:47,0
DA:48,0
DA:49,0
DA:50,0
DA:51,0
DA:55,0
DA:56,0
DA:57,0
DA:58,0
DA:59,0
DA:60,0
DA:61,0
DA:62,0
DA:63,0
DA:64,0
DA:65,0
DA:66,0
DA:67,0
DA:68,0
DA:69,0
DA:72,0
DA:73,0
DA:74,0
DA:75,0
DA:76,0
DA:77,0
DA:78,0
DA:119,3
DA:120,3
DA:121,3
DA:122,3
DA:123,3
DA:124,3
DA:125,3
DA:126,3
DA:127,3
DA:128,3
DA:129,3
DA:133,3
DA:134,3
DA:135,3
DA:136,3
DA:137,3
DA:138,3
DA:139,3
DA:140,3
DA:142,3
DA:143,3
DA:144,3
DA:145,3
DA:146,3
DA:147,3
DA:148,3
DA:149,3
DA:151,7
DA:152,7
DA:153,7
DA:154,4
DA:155,9
DA:156,6
DA:157,1
DA:158,5
DA:160,1
DA:161,3
DA:162,7
DA:163,7
DA:165,6
DA:166,6
DA:167,4
DA:168,4
DA:169,4
DA:170,4
DA:171,4
DA:172,4
DA:173,4
DA:175,2
DA:177,6
DA:180,3
DA:181,3
DA:183,3
DA:184,2
DA:185,5
DA:187,3
DA:188,3
DA:189,3
DA:190,3
DA:191,0
DA:193,0
DA:194,1
DA:196,3
DA:197,3
DA:199,8
DA:200,8
DA:201,8
DA:202,8
DA:203,8
DA:204,8
DA:205,5
DA:206,18
DA:207,13
DA:208,10
DA:209,10
DA:210,10
DA:211,10
DA:212,10
DA:213,10
DA:214,10
DA:215,10
DA:216,10
DA:217,10
DA:218,10
DA:219,10
DA:221,0
DA:222,3
DA:223,8
DA:224,8
DA:226,1551
DA:227,1551
DA:228,1551
DA:229,1551
DA:230,1551
DA:231,8043
DA:232,8043
DA:233,3950
DA:234,4093
DA:236,8043
DA:238,1551
DA:239,1551
DA:240,8043
DA:241,8043
DA:242,3950
DA:244,4093
DA:247,8043
DA:249,1551
DA:250,1551
DA:260,3
DA:261,3
DA:262,3
DA:263,3
DA:264,3
DA:265,3
DA:266,3
DA:267,3
DA:269,6
DA:270,6
DA:271,6
DA:272,6
DA:273,6
DA:274,6
DA:275,6
DA:276,6
DA:277,6
DA:278,6
DA:279,6
DA:280,6
DA:281,6
DA:282,6
DA:283,6
DA:284,6
DA:285,6
DA:286,6
DA:287,6
DA:288,6
DA:289,6
DA:290,6
DA:291,6
DA:292,6
DA:293,6
DA:295,1
DA:296,1
DA:297,1
DA:298,1
DA:299,1
DA:300,1
DA:301,1
DA:302,1
DA:303,1
DA:304,1
DA:305,1
DA:306,1
DA:308,1
DA:309,1
DA:310,1
DA:311,1
DA:312,1
DA:313,1
DA:314,1
DA:315,1
DA:318,1
DA:319,1
DA:320,1
DA:322,1
DA:323,1
DA:324,1
DA:327,1
DA:328,1
DA:329,1
DA:331,1
DA:332,1
DA:334,1
DA:336,1
DA:339,1
DA:340,1
DA:341,1
DA:343,1
DA:345,1
DA:347,1
DA:349,1
DA:351,1
DA:354,1
DA:355,1
DA:356,1
DA:358,1
DA:359,1
DA:360,1
DA:363,1
DA:364,1
DA:365,1
DA:366,1
DA:367,1
DA:368,1
DA:370,1
DA:372,1
DA:374,1
DA:376,1
DA:378,1
DA:380,1
DA:383,1
DA:384,1
DA:386,1
DA:387,1
DA:388,1
DA:389,1
DA:390,1
DA:392,1
DA:393,1
DA:394,1
DA:397,1
DA:398,1
DA:400,1
DA:401,1
DA:402,1
DA:403,1
DA:404,1
DA:407,1
DA:408,1
DA:409,1
DA:410,1
DA:411,1
DA:414,1
DA:415,1
DA:416,1
DA:417,1
DA:418,1
DA:419,1
DA:420,1
DA:421,1
DA:422,1
DA:423,1
DA:424,1
DA:425,1
DA:428,1
DA:429,1
DA:430,1
DA:432,1
DA:433,1
DA:434,1
DA:435,1
DA:438,1
DA:439,1
DA:440,1
DA:442,1
DA:443,1
DA:444,1
DA:445,1
DA:448,1
DA:449,1
DA:450,1
DA:451,1
DA:452,1
DA:453,1
DA:454,1
DA:455,1
DA:456,1
DA:457,1
DA:459,1
DA:460,1
DA:461,1
DA:462,1
DA:465,1
DA:466,1
DA:467,1
DA:469,1
DA:470,1
DA:472,1
DA:474,1
DA:475,1
DA:476,1
DA:477,1
DA:478,1
DA:480,1
DA:481,1
DA:482,1
DA:483,1
DA:485,1
DA:488,1
DA:489,1
DA:490,1
DA:492,1
DA:494,1
DA:496,1
DA:498,1
DA:501,1
DA:502,1
DA:503,1
DA:505,1
DA:506,1
DA:508,4
DA:509,3
DA:510,3
DA:511,2
DA:512,1
DA:515,1
DA:516,1
DA:519,1
DA:520,1
DA:521,1
DA:523,1
DA:524,1
DA:526,1
DA:527,1
DA:530,1
DA:531,1
DA:532,1
DA:534,1
DA:535,1
DA:536,1
DA:537,1
DA:538,1
DA:539,1
DA:540,1
DA:541,1
DA:542,1
DA:544,1
DA:545,1
DA:548,1
DA:549,1
DA:550,1
DA:552,1
DA:553,1
DA:555,1
DA:556,1
DA:557,1
DA:559,1
DA:561,1
DA:563,1
DA:565,1
DA:568,1
DA:569,1
DA:570,1
DA:571,1
DA:573,1
DA:575,1
DA:576,1
DA:577,1
DA:578,1
DA:579,1
DA:582,1
DA:583,1
DA:584,1
DA:585,1
DA:587,1
DA:589,1
DA:590,1
DA:591,1
DA:592,1
DA:593,1
DA:594,1
DA:595,1
DA:596,1
DA:597,1
BRF:0
BRH:0
LF:402
LH:356
end_of_record